
ipv4_arm64：     文件格式 elf64-littleaarch64


Disassembly of section .init:

0000000000400280 <_init>:
  400280:	d503201f 	nop
  400284:	a9bf7bfd 	stp	x29, x30, [sp, #-16]!
  400288:	910003fd 	mov	x29, sp
  40028c:	9400012e 	bl	400744 <call_weak_fn>
  400290:	a8c17bfd 	ldp	x29, x30, [sp], #16
  400294:	d65f03c0 	ret

Disassembly of section .plt:

00000000004002a0 <.plt>:
  4002a0:	d0000490 	adrp	x16, 492000 <.got.plt+0x18>
  4002a4:	f9400211 	ldr	x17, [x16]
  4002a8:	91000210 	add	x16, x16, #0x0
  4002ac:	d61f0220 	br	x17
  4002b0:	d0000490 	adrp	x16, 492000 <.got.plt+0x18>
  4002b4:	f9400611 	ldr	x17, [x16, #8]
  4002b8:	91002210 	add	x16, x16, #0x8
  4002bc:	d61f0220 	br	x17
  4002c0:	d0000490 	adrp	x16, 492000 <.got.plt+0x18>
  4002c4:	f9400a11 	ldr	x17, [x16, #16]
  4002c8:	91004210 	add	x16, x16, #0x10
  4002cc:	d61f0220 	br	x17
  4002d0:	d0000490 	adrp	x16, 492000 <.got.plt+0x18>
  4002d4:	f9400e11 	ldr	x17, [x16, #24]
  4002d8:	91006210 	add	x16, x16, #0x18
  4002dc:	d61f0220 	br	x17
  4002e0:	d0000490 	adrp	x16, 492000 <.got.plt+0x18>
  4002e4:	f9401211 	ldr	x17, [x16, #32]
  4002e8:	91008210 	add	x16, x16, #0x20
  4002ec:	d61f0220 	br	x17
  4002f0:	d0000490 	adrp	x16, 492000 <.got.plt+0x18>
  4002f4:	f9401611 	ldr	x17, [x16, #40]
  4002f8:	9100a210 	add	x16, x16, #0x28
  4002fc:	d61f0220 	br	x17
  400300:	d0000490 	adrp	x16, 492000 <.got.plt+0x18>
  400304:	f9401a11 	ldr	x17, [x16, #48]
  400308:	9100c210 	add	x16, x16, #0x30
  40030c:	d61f0220 	br	x17

Disassembly of section .text:

0000000000400340 <abort>:
  400340:	a9ab7bfd 	stp	x29, x30, [sp, #-336]!
  400344:	b0000480 	adrp	x0, 491000 <tunable_list+0x528>
  400348:	910003fd 	mov	x29, sp
  40034c:	a90153f3 	stp	x19, x20, [sp, #16]
  400350:	900004b3 	adrp	x19, 494000 <_IO_helper_jumps+0x80>
  400354:	d53bd054 	mrs	x20, tpidr_el0
  400358:	f90013f5 	str	x21, [sp, #32]
  40035c:	912ac275 	add	x21, x19, #0xab0
  400360:	f945f800 	ldr	x0, [x0, #3056]
  400364:	d11f0294 	sub	x20, x20, #0x7c0
  400368:	f94006a1 	ldr	x1, [x21, #8]
  40036c:	f9400002 	ldr	x2, [x0]
  400370:	f900a7e2 	str	x2, [sp, #328]
  400374:	d2800002 	mov	x2, #0x0                   	// #0
  400378:	eb14003f 	cmp	x1, x20
  40037c:	54000140 	b.eq	4003a4 <abort+0x64>  // b.none
  400380:	aa1503e2 	mov	x2, x21
  400384:	52800021 	mov	w1, #0x1                   	// #1
  400388:	52800000 	mov	w0, #0x0                   	// #0
  40038c:	940148ed 	bl	452740 <__aarch64_cas4_acq>
  400390:	34000060 	cbz	w0, 40039c <abort+0x5c>
  400394:	aa1503e0 	mov	x0, x21
  400398:	94003cd2 	bl	40f6e0 <__lll_lock_wait_private>
  40039c:	912ac260 	add	x0, x19, #0xab0
  4003a0:	f9000414 	str	x20, [x0, #8]
  4003a4:	912ac263 	add	x3, x19, #0xab0
  4003a8:	b9400460 	ldr	w0, [x3, #4]
  4003ac:	b9401061 	ldr	w1, [x3, #16]
  4003b0:	11000400 	add	w0, w0, #0x1
  4003b4:	b9000460 	str	w0, [x3, #4]
  4003b8:	35000101 	cbnz	w1, 4003d8 <abort+0x98>
  4003bc:	d2800404 	mov	x4, #0x20                  	// #32
  4003c0:	52800020 	mov	w0, #0x1                   	// #1
  4003c4:	9100c3e1 	add	x1, sp, #0x30
  4003c8:	d2800002 	mov	x2, #0x0                   	// #0
  4003cc:	b9001060 	str	w0, [x3, #16]
  4003d0:	f9001be4 	str	x4, [sp, #48]
  4003d4:	940015bb 	bl	405ac0 <__sigprocmask>
  4003d8:	912ac275 	add	x21, x19, #0xab0
  4003dc:	b94012a0 	ldr	w0, [x21, #16]
  4003e0:	7100041f 	cmp	w0, #0x1
  4003e4:	54000421 	b.ne	400468 <abort+0x128>  // b.any
  4003e8:	b94006a0 	ldr	w0, [x21, #4]
  4003ec:	b90012bf 	str	wzr, [x21, #16]
  4003f0:	51000400 	sub	w0, w0, #0x1
  4003f4:	b90006a0 	str	w0, [x21, #4]
  4003f8:	35000100 	cbnz	w0, 400418 <abort+0xd8>
  4003fc:	aa1503e1 	mov	x1, x21
  400400:	f90006bf 	str	xzr, [x21, #8]
  400404:	94014963 	bl	452990 <__aarch64_swp4_rel>
  400408:	7100041f 	cmp	w0, #0x1
  40040c:	5400006d 	b.le	400418 <abort+0xd8>
  400410:	aa1503e0 	mov	x0, x21
  400414:	94003cf4 	bl	40f7e4 <__lll_lock_wake_private>
  400418:	912ac275 	add	x21, x19, #0xab0
  40041c:	528000c0 	mov	w0, #0x6                   	// #6
  400420:	94001594 	bl	405a70 <raise>
  400424:	f94006a0 	ldr	x0, [x21, #8]
  400428:	eb00029f 	cmp	x20, x0
  40042c:	54000140 	b.eq	400454 <abort+0x114>  // b.none
  400430:	aa1503e2 	mov	x2, x21
  400434:	52800021 	mov	w1, #0x1                   	// #1
  400438:	52800000 	mov	w0, #0x0                   	// #0
  40043c:	940148c1 	bl	452740 <__aarch64_cas4_acq>
  400440:	34000060 	cbz	w0, 40044c <abort+0x10c>
  400444:	aa1503e0 	mov	x0, x21
  400448:	94003ca6 	bl	40f6e0 <__lll_lock_wait_private>
  40044c:	912ac260 	add	x0, x19, #0xab0
  400450:	f9000414 	str	x20, [x0, #8]
  400454:	912ac261 	add	x1, x19, #0xab0
  400458:	b9400420 	ldr	w0, [x1, #4]
  40045c:	11000400 	add	w0, w0, #0x1
  400460:	b9000420 	str	w0, [x1, #4]
  400464:	14000003 	b	400470 <abort+0x130>
  400468:	7100081f 	cmp	w0, #0x2
  40046c:	540001e1 	b.ne	4004a8 <abort+0x168>  // b.any
  400470:	9102c3e3 	add	x3, sp, #0xb0
  400474:	912ac264 	add	x4, x19, #0xab0
  400478:	52800065 	mov	w5, #0x3                   	// #3
  40047c:	aa0303e0 	mov	x0, x3
  400480:	d2801302 	mov	x2, #0x98                  	// #152
  400484:	52800001 	mov	w1, #0x0                   	// #0
  400488:	b9001085 	str	w5, [x4, #16]
  40048c:	97ffff91 	bl	4002d0 <.plt+0x30>
  400490:	92800003 	mov	x3, #0xffffffffffffffff    	// #-1
  400494:	aa0003e1 	mov	x1, x0
  400498:	d2800002 	mov	x2, #0x0                   	// #0
  40049c:	528000c0 	mov	w0, #0x6                   	// #6
  4004a0:	f9005fe3 	str	x3, [sp, #184]
  4004a4:	9400abcf 	bl	42b3e0 <__sigaction>
  4004a8:	912ac261 	add	x1, x19, #0xab0
  4004ac:	b9401020 	ldr	w0, [x1, #16]
  4004b0:	71000c1f 	cmp	w0, #0x3
  4004b4:	540000a1 	b.ne	4004c8 <abort+0x188>  // b.any
  4004b8:	52800082 	mov	w2, #0x4                   	// #4
  4004bc:	528000c0 	mov	w0, #0x6                   	// #6
  4004c0:	b9001022 	str	w2, [x1, #16]
  4004c4:	9400156b 	bl	405a70 <raise>
  4004c8:	912ac260 	add	x0, x19, #0xab0
  4004cc:	b9401001 	ldr	w1, [x0, #16]
  4004d0:	7100103f 	cmp	w1, #0x4
  4004d4:	54000081 	b.ne	4004e4 <abort+0x1a4>  // b.any
  4004d8:	528000a1 	mov	w1, #0x5                   	// #5
  4004dc:	b9001001 	str	w1, [x0, #16]
  4004e0:	d4207d00 	brk	#0x3e8
  4004e4:	912ac273 	add	x19, x19, #0xab0
  4004e8:	b9401260 	ldr	w0, [x19, #16]
  4004ec:	7100141f 	cmp	w0, #0x5
  4004f0:	540000a1 	b.ne	400504 <abort+0x1c4>  // b.any
  4004f4:	528000c1 	mov	w1, #0x6                   	// #6
  4004f8:	52800fe0 	mov	w0, #0x7f                  	// #127
  4004fc:	b9001261 	str	w1, [x19, #16]
  400500:	94006700 	bl	41a100 <_exit>
  400504:	d4207d00 	brk	#0x3e8
  400508:	17ffffff 	b	400504 <abort+0x1c4>

000000000040050c <_dl_start>:
  40050c:	a9bf7bfd 	stp	x29, x30, [sp, #-16]!
  400510:	910003fd 	mov	x29, sp
  400514:	97ffff8b 	bl	400340 <abort>
  400518:	d503201f 	nop
  40051c:	d503201f 	nop

0000000000400520 <main>:
  400520:	a9bb7bfd 	stp	x29, x30, [sp, #-80]!
  400524:	910003fd 	mov	x29, sp
  400528:	a90153f3 	stp	x19, x20, [sp, #16]
  40052c:	7100081f 	cmp	w0, #0x2
  400530:	540000c0 	b.eq	400548 <main+0x28>  // b.none
  400534:	52800033 	mov	w19, #0x1                   	// #1
  400538:	2a1303e0 	mov	w0, w19
  40053c:	a94153f3 	ldp	x19, x20, [sp, #16]
  400540:	a8c57bfd 	ldp	x29, x30, [sp], #80
  400544:	d65f03c0 	ret
  400548:	f9400420 	ldr	x0, [x1, #8]
  40054c:	52800142 	mov	w2, #0xa                   	// #10
  400550:	d2800001 	mov	x1, #0x0                   	// #0
  400554:	a9025bf5 	stp	x21, x22, [sp, #32]
  400558:	94001a23 	bl	406de4 <__strtol>
  40055c:	aa0003f4 	mov	x20, x0
  400560:	2a0003f6 	mov	w22, w0
  400564:	7100001f 	cmp	w0, #0x0
  400568:	5400076d 	b.le	400654 <main+0x134>
  40056c:	d2800000 	mov	x0, #0x0                   	// #0
  400570:	940066a0 	bl	419ff0 <__time>
  400574:	9400184b 	bl	4066a0 <__srandom>
  400578:	940000da 	bl	4008e0 <InitHashIpv4>
  40057c:	2a0003f3 	mov	w19, w0
  400580:	350006a0 	cbnz	w0, 400654 <main+0x134>
  400584:	937d7e80 	sbfiz	x0, x20, #3, #32
  400588:	d2800015 	mov	x21, #0x0                   	// #0
  40058c:	a90363f7 	stp	x23, x24, [sp, #48]
  400590:	94005090 	bl	4147d0 <__libc_malloc>
  400594:	aa0003f8 	mov	x24, x0
  400598:	b40007c0 	cbz	x0, 400690 <main+0x170>
  40059c:	f90023f9 	str	x25, [sp, #64]
  4005a0:	940001a8 	bl	400c40 <generate_random_ipv4>
  4005a4:	f8357b00 	str	x0, [x24, x21, lsl #3]
  4005a8:	910006b5 	add	x21, x21, #0x1
  4005ac:	6b1502df 	cmp	w22, w21
  4005b0:	54ffff8c 	b.gt	4005a0 <main+0x80>
  4005b4:	aa1803f5 	mov	x21, x24
  4005b8:	aa1803f7 	mov	x23, x24
  4005bc:	52800c99 	mov	w25, #0x64                  	// #100
  4005c0:	11018e60 	add	w0, w19, #0x63
  4005c4:	4b130281 	sub	w1, w20, w19
  4005c8:	6b0002df 	cmp	w22, w0
  4005cc:	11019273 	add	w19, w19, #0x64
  4005d0:	1a99d021 	csel	w1, w1, w25, le
  4005d4:	aa1703e0 	mov	x0, x23
  4005d8:	910c82f7 	add	x23, x23, #0x320
  4005dc:	940000cd 	bl	400910 <AddIpv4>
  4005e0:	6b16027f 	cmp	w19, w22
  4005e4:	54fffeeb 	b.lt	4005c0 <main+0xa0>  // b.tstop
  4005e8:	51000693 	sub	w19, w20, #0x1
  4005ec:	91000673 	add	x19, x19, #0x1
  4005f0:	8b130f13 	add	x19, x24, x19, lsl #3
  4005f4:	d503201f 	nop
  4005f8:	aa1503e0 	mov	x0, x21
  4005fc:	910022b5 	add	x21, x21, #0x8
  400600:	9400010c 	bl	400a30 <FindIpv4>
  400604:	eb15027f 	cmp	x19, x21
  400608:	54ffff81 	b.ne	4005f8 <main+0xd8>  // b.any
  40060c:	aa1803e0 	mov	x0, x24
  400610:	940051d0 	bl	414d50 <__free>
  400614:	d2800001 	mov	x1, #0x0                   	// #0
  400618:	d2800000 	mov	x0, #0x0                   	// #0
  40061c:	940001c8 	bl	400d3c <m5_checkpoint>
  400620:	d2800001 	mov	x1, #0x0                   	// #0
  400624:	d2800000 	mov	x0, #0x0                   	// #0
  400628:	940001bf 	bl	400d24 <m5_reset_stats>
  40062c:	94000155 	bl	400b80 <DestoryHashIpv4>
  400630:	2a0003f3 	mov	w19, w0
  400634:	35000140 	cbnz	w0, 40065c <main+0x13c>
  400638:	d2800001 	mov	x1, #0x0                   	// #0
  40063c:	d2800000 	mov	x0, #0x0                   	// #0
  400640:	940001bb 	bl	400d2c <m5_dump_stats>
  400644:	a9425bf5 	ldp	x21, x22, [sp, #32]
  400648:	a94363f7 	ldp	x23, x24, [sp, #48]
  40064c:	f94023f9 	ldr	x25, [sp, #64]
  400650:	17ffffba 	b	400538 <main+0x18>
  400654:	a9425bf5 	ldp	x21, x22, [sp, #32]
  400658:	17ffffb7 	b	400534 <main+0x14>
  40065c:	b0000483 	adrp	x3, 491000 <tunable_list+0x528>
  400660:	900002c0 	adrp	x0, 458000 <free_modules_db+0x40>
  400664:	d2800462 	mov	x2, #0x23                  	// #35
  400668:	91206000 	add	x0, x0, #0x818
  40066c:	f9476463 	ldr	x3, [x3, #3784]
  400670:	d2800021 	mov	x1, #0x1                   	// #1
  400674:	52800033 	mov	w19, #0x1                   	// #1
  400678:	f9400063 	ldr	x3, [x3]
  40067c:	94001f61 	bl	408400 <_IO_fwrite>
  400680:	a9425bf5 	ldp	x21, x22, [sp, #32]
  400684:	a94363f7 	ldp	x23, x24, [sp, #48]
  400688:	f94023f9 	ldr	x25, [sp, #64]
  40068c:	17ffffab 	b	400538 <main+0x18>
  400690:	9400013c 	bl	400b80 <DestoryHashIpv4>
  400694:	52800033 	mov	w19, #0x1                   	// #1
  400698:	a9425bf5 	ldp	x21, x22, [sp, #32]
  40069c:	a94363f7 	ldp	x23, x24, [sp, #48]
  4006a0:	17ffffa6 	b	400538 <main+0x18>
  4006a4:	d503201f 	nop
  4006a8:	d503201f 	nop
  4006ac:	d503201f 	nop

00000000004006b0 <init_have_lse_atomics>:
  4006b0:	a9bf7bfd 	stp	x29, x30, [sp, #-16]!
  4006b4:	d2800200 	mov	x0, #0x10                  	// #16
  4006b8:	910003fd 	mov	x29, sp
  4006bc:	94015d11 	bl	457b00 <__getauxval>
  4006c0:	53082000 	ubfx	w0, w0, #8, #1
  4006c4:	b00004c1 	adrp	x1, 499000 <_r_debug_extended+0x20>
  4006c8:	a8c17bfd 	ldp	x29, x30, [sp], #16
  4006cc:	39148020 	strb	w0, [x1, #1312]
  4006d0:	d65f03c0 	ret
  4006d4:	d503201f 	nop
  4006d8:	d503201f 	nop
  4006dc:	d503201f 	nop
  4006e0:	d503201f 	nop
  4006e4:	d503201f 	nop
  4006e8:	d503201f 	nop
  4006ec:	d503201f 	nop
  4006f0:	d503201f 	nop
  4006f4:	d503201f 	nop
  4006f8:	d503201f 	nop
  4006fc:	d503201f 	nop

0000000000400700 <_start>:
  400700:	d503201f 	nop
  400704:	d280001d 	mov	x29, #0x0                   	// #0
  400708:	d280001e 	mov	x30, #0x0                   	// #0
  40070c:	aa0003e5 	mov	x5, x0
  400710:	f94003e1 	ldr	x1, [sp]
  400714:	910023e2 	add	x2, sp, #0x8
  400718:	910003e6 	mov	x6, sp
  40071c:	90000000 	adrp	x0, 400000 <__ehdr_start>
  400720:	911cd000 	add	x0, x0, #0x734
  400724:	d2800003 	mov	x3, #0x0                   	// #0
  400728:	d2800004 	mov	x4, #0x0                   	// #0
  40072c:	940001d5 	bl	400e80 <__libc_start_main>
  400730:	97ffff04 	bl	400340 <abort>

0000000000400734 <__wrap_main>:
  400734:	d503201f 	nop
  400738:	17ffff7a 	b	400520 <main>
  40073c:	d503201f 	nop

0000000000400740 <_dl_relocate_static_pie>:
  400740:	d65f03c0 	ret

0000000000400744 <call_weak_fn>:
  400744:	b0000480 	adrp	x0, 491000 <tunable_list+0x528>
  400748:	f947e800 	ldr	x0, [x0, #4048]
  40074c:	b4000040 	cbz	x0, 400754 <call_weak_fn+0x10>
  400750:	d503201f 	nop
  400754:	d65f03c0 	ret
  400758:	d503201f 	nop
  40075c:	d503201f 	nop

0000000000400760 <deregister_tm_clones>:
  400760:	f0000480 	adrp	x0, 493000 <_dl_stack_flags>
  400764:	9127e000 	add	x0, x0, #0x9f8
  400768:	f0000481 	adrp	x1, 493000 <_dl_stack_flags>
  40076c:	9127e021 	add	x1, x1, #0x9f8
  400770:	eb00003f 	cmp	x1, x0
  400774:	540000c0 	b.eq	40078c <deregister_tm_clones+0x2c>  // b.none
  400778:	900002c1 	adrp	x1, 458000 <free_modules_db+0x40>
  40077c:	f943fc21 	ldr	x1, [x1, #2040]
  400780:	b4000061 	cbz	x1, 40078c <deregister_tm_clones+0x2c>
  400784:	aa0103f0 	mov	x16, x1
  400788:	d61f0200 	br	x16
  40078c:	d65f03c0 	ret

0000000000400790 <register_tm_clones>:
  400790:	f0000480 	adrp	x0, 493000 <_dl_stack_flags>
  400794:	9127e000 	add	x0, x0, #0x9f8
  400798:	f0000481 	adrp	x1, 493000 <_dl_stack_flags>
  40079c:	9127e021 	add	x1, x1, #0x9f8
  4007a0:	cb000021 	sub	x1, x1, x0
  4007a4:	d37ffc22 	lsr	x2, x1, #63
  4007a8:	8b810c41 	add	x1, x2, x1, asr #3
  4007ac:	9341fc21 	asr	x1, x1, #1
  4007b0:	b40000c1 	cbz	x1, 4007c8 <register_tm_clones+0x38>
  4007b4:	900002c2 	adrp	x2, 458000 <free_modules_db+0x40>
  4007b8:	f9440042 	ldr	x2, [x2, #2048]
  4007bc:	b4000062 	cbz	x2, 4007c8 <register_tm_clones+0x38>
  4007c0:	aa0203f0 	mov	x16, x2
  4007c4:	d61f0200 	br	x16
  4007c8:	d65f03c0 	ret
  4007cc:	d503201f 	nop

00000000004007d0 <__do_global_dtors_aux>:
  4007d0:	a9be7bfd 	stp	x29, x30, [sp, #-32]!
  4007d4:	910003fd 	mov	x29, sp
  4007d8:	f9000bf3 	str	x19, [sp, #16]
  4007dc:	900004b3 	adrp	x19, 494000 <_IO_helper_jumps+0x80>
  4007e0:	39436260 	ldrb	w0, [x19, #216]
  4007e4:	35000140 	cbnz	w0, 40080c <__do_global_dtors_aux+0x3c>
  4007e8:	97ffffde 	bl	400760 <deregister_tm_clones>
  4007ec:	900002c0 	adrp	x0, 458000 <free_modules_db+0x40>
  4007f0:	f9440400 	ldr	x0, [x0, #2056]
  4007f4:	b4000080 	cbz	x0, 400804 <__do_global_dtors_aux+0x34>
  4007f8:	d0000380 	adrp	x0, 472000 <__tens+0x3108>
  4007fc:	91252000 	add	x0, x0, #0x948
  400800:	94015ad9 	bl	457364 <__deregister_frame_info>
  400804:	52800020 	mov	w0, #0x1                   	// #1
  400808:	39036260 	strb	w0, [x19, #216]
  40080c:	f9400bf3 	ldr	x19, [sp, #16]
  400810:	a8c27bfd 	ldp	x29, x30, [sp], #32
  400814:	d65f03c0 	ret
  400818:	d503201f 	nop
  40081c:	d503201f 	nop

0000000000400820 <frame_dummy>:
  400820:	900002c0 	adrp	x0, 458000 <free_modules_db+0x40>
  400824:	f9440800 	ldr	x0, [x0, #2064]
  400828:	b4000140 	cbz	x0, 400850 <frame_dummy+0x30>
  40082c:	a9bf7bfd 	stp	x29, x30, [sp, #-16]!
  400830:	900004a1 	adrp	x1, 494000 <_IO_helper_jumps+0x80>
  400834:	d0000380 	adrp	x0, 472000 <__tens+0x3108>
  400838:	910003fd 	mov	x29, sp
  40083c:	91038021 	add	x1, x1, #0xe0
  400840:	91252000 	add	x0, x0, #0x948
  400844:	940159bf 	bl	456f40 <__register_frame_info>
  400848:	a8c17bfd 	ldp	x29, x30, [sp], #16
  40084c:	17ffffd1 	b	400790 <register_tm_clones>
  400850:	17ffffd0 	b	400790 <register_tm_clones>
  400854:	d503201f 	nop
  400858:	d503201f 	nop
  40085c:	d503201f 	nop

0000000000400860 <call_hash_ipv4>:
  400860:	900004a1 	adrp	x1, 494000 <_IO_helper_jumps+0x80>
  400864:	f9408821 	ldr	x1, [x1, #272]
  400868:	f100003f 	cmp	x1, #0x0
  40086c:	fa401804 	ccmp	x0, #0x0, #0x4, ne  // ne = any
  400870:	54000180 	b.eq	4008a0 <call_hash_ipv4+0x40>  // b.none
  400874:	f9400002 	ldr	x2, [x0]
  400878:	d29801a0 	mov	x0, #0xc00d                	// #49165
  40087c:	f2bcc720 	movk	x0, #0xe639, lsl #16
  400880:	d280a523 	mov	x3, #0x529                 	// #1321
  400884:	f2d1ff80 	movk	x0, #0x8ffc, lsl #32
  400888:	f2f8ce20 	movk	x0, #0xc671, lsl #48
  40088c:	9bc07c40 	umulh	x0, x2, x0
  400890:	d34afc00 	lsr	x0, x0, #10
  400894:	9b038800 	msub	x0, x0, x3, x2
  400898:	8b000c20 	add	x0, x1, x0, lsl #3
  40089c:	d65f03c0 	ret
  4008a0:	d2800000 	mov	x0, #0x0                   	// #0
  4008a4:	d65f03c0 	ret
  4008a8:	d503201f 	nop
  4008ac:	d503201f 	nop

00000000004008b0 <eq_ipv4>:
  4008b0:	f100001f 	cmp	x0, #0x0
  4008b4:	fa401824 	ccmp	x1, #0x0, #0x4, ne  // ne = any
  4008b8:	540000c0 	b.eq	4008d0 <eq_ipv4+0x20>  // b.none
  4008bc:	f9400002 	ldr	x2, [x0]
  4008c0:	f9400020 	ldr	x0, [x1]
  4008c4:	eb00005f 	cmp	x2, x0
  4008c8:	1a9f17e0 	cset	w0, eq  // eq = none
  4008cc:	d65f03c0 	ret
  4008d0:	52800000 	mov	w0, #0x0                   	// #0
  4008d4:	d65f03c0 	ret
  4008d8:	d503201f 	nop
  4008dc:	d503201f 	nop

00000000004008e0 <InitHashIpv4>:
  4008e0:	a9bf7bfd 	stp	x29, x30, [sp, #-16]!
  4008e4:	d2800021 	mov	x1, #0x1                   	// #1
  4008e8:	d2852900 	mov	x0, #0x2948                	// #10568
  4008ec:	910003fd 	mov	x29, sp
  4008f0:	94005338 	bl	4155d0 <__calloc>
  4008f4:	f100001f 	cmp	x0, #0x0
  4008f8:	900004a1 	adrp	x1, 494000 <_IO_helper_jumps+0x80>
  4008fc:	a8c17bfd 	ldp	x29, x30, [sp], #16
  400900:	f9008820 	str	x0, [x1, #272]
  400904:	5a9f13e0 	csetm	w0, eq  // eq = none
  400908:	d65f03c0 	ret
  40090c:	d503201f 	nop

0000000000400910 <AddIpv4>:
  400910:	a9bc7bfd 	stp	x29, x30, [sp, #-64]!
  400914:	910003fd 	mov	x29, sp
  400918:	a9025bf5 	stp	x21, x22, [sp, #32]
  40091c:	2a0103f5 	mov	w21, w1
  400920:	a90153f3 	stp	x19, x20, [sp, #16]
  400924:	f9001bf7 	str	x23, [sp, #48]
  400928:	aa0003f7 	mov	x23, x0
  40092c:	d37d7ea0 	ubfiz	x0, x21, #3, #32
  400930:	94004fa8 	bl	4147d0 <__libc_malloc>
  400934:	f10002ff 	cmp	x23, #0x0
  400938:	7a401aa4 	ccmp	w21, #0x0, #0x4, ne  // ne = any
  40093c:	54000720 	b.eq	400a20 <AddIpv4+0x110>  // b.none
  400940:	aa0003f6 	mov	x22, x0
  400944:	900004a0 	adrp	x0, 494000 <_IO_helper_jumps+0x80>
  400948:	d29801a5 	mov	x5, #0xc00d                	// #49165
  40094c:	d2800001 	mov	x1, #0x0                   	// #0
  400950:	f2bcc725 	movk	x5, #0xe639, lsl #16
  400954:	d280a524 	mov	x4, #0x529                 	// #1321
  400958:	f9408803 	ldr	x3, [x0, #272]
  40095c:	f2d1ff85 	movk	x5, #0x8ffc, lsl #32
  400960:	f2f8ce25 	movk	x5, #0xc671, lsl #48
  400964:	d503201f 	nop
  400968:	b4000543 	cbz	x3, 400a10 <AddIpv4+0x100>
  40096c:	f8617ae0 	ldr	x0, [x23, x1, lsl #3]
  400970:	9bc57c02 	umulh	x2, x0, x5
  400974:	d34afc42 	lsr	x2, x2, #10
  400978:	9b048042 	msub	x2, x2, x4, x0
  40097c:	8b020c62 	add	x2, x3, x2, lsl #3
  400980:	f8217ac2 	str	x2, [x22, x1, lsl #3]
  400984:	91000421 	add	x1, x1, #0x1
  400988:	6b0102bf 	cmp	w21, w1
  40098c:	54fffee8 	b.hi	400968 <AddIpv4+0x58>  // b.pmore
  400990:	d2800014 	mov	x20, #0x0                   	// #0
  400994:	d503201f 	nop
  400998:	f8747ad3 	ldr	x19, [x22, x20, lsl #3]
  40099c:	b40003f3 	cbz	x19, 400a18 <AddIpv4+0x108>
  4009a0:	f9400262 	ldr	x2, [x19]
  4009a4:	b4000062 	cbz	x2, 4009b0 <AddIpv4+0xa0>
  4009a8:	f9400042 	ldr	x2, [x2]
  4009ac:	b5ffffe2 	cbnz	x2, 4009a8 <AddIpv4+0x98>
  4009b0:	d2800021 	mov	x1, #0x1                   	// #1
  4009b4:	d2800300 	mov	x0, #0x18                  	// #24
  4009b8:	94005306 	bl	4155d0 <__calloc>
  4009bc:	b40002e0 	cbz	x0, 400a18 <AddIpv4+0x108>
  4009c0:	f8747ae1 	ldr	x1, [x23, x20, lsl #3]
  4009c4:	f9000801 	str	x1, [x0, #16]
  4009c8:	f9400261 	ldr	x1, [x19]
  4009cc:	f9000001 	str	x1, [x0]
  4009d0:	b4000041 	cbz	x1, 4009d8 <AddIpv4+0xc8>
  4009d4:	f9000420 	str	x0, [x1, #8]
  4009d8:	f9000260 	str	x0, [x19]
  4009dc:	91000694 	add	x20, x20, #0x1
  4009e0:	f9000413 	str	x19, [x0, #8]
  4009e4:	6b1402bf 	cmp	w21, w20
  4009e8:	54fffd88 	b.hi	400998 <AddIpv4+0x88>  // b.pmore
  4009ec:	52800013 	mov	w19, #0x0                   	// #0
  4009f0:	aa1603e0 	mov	x0, x22
  4009f4:	940050d7 	bl	414d50 <__free>
  4009f8:	2a1303e0 	mov	w0, w19
  4009fc:	a94153f3 	ldp	x19, x20, [sp, #16]
  400a00:	a9425bf5 	ldp	x21, x22, [sp, #32]
  400a04:	f9401bf7 	ldr	x23, [sp, #48]
  400a08:	a8c47bfd 	ldp	x29, x30, [sp], #64
  400a0c:	d65f03c0 	ret
  400a10:	d2800002 	mov	x2, #0x0                   	// #0
  400a14:	17ffffdb 	b	400980 <AddIpv4+0x70>
  400a18:	12800013 	mov	w19, #0xffffffff            	// #-1
  400a1c:	17fffff5 	b	4009f0 <AddIpv4+0xe0>
  400a20:	12800013 	mov	w19, #0xffffffff            	// #-1
  400a24:	17fffff5 	b	4009f8 <AddIpv4+0xe8>
  400a28:	d503201f 	nop
  400a2c:	d503201f 	nop

0000000000400a30 <FindIpv4>:
  400a30:	b40002c0 	cbz	x0, 400a88 <FindIpv4+0x58>
  400a34:	900004a1 	adrp	x1, 494000 <_IO_helper_jumps+0x80>
  400a38:	f9408822 	ldr	x2, [x1, #272]
  400a3c:	b4000262 	cbz	x2, 400a88 <FindIpv4+0x58>
  400a40:	f9400001 	ldr	x1, [x0]
  400a44:	d29801a0 	mov	x0, #0xc00d                	// #49165
  400a48:	f2bcc720 	movk	x0, #0xe639, lsl #16
  400a4c:	d280a523 	mov	x3, #0x529                 	// #1321
  400a50:	f2d1ff80 	movk	x0, #0x8ffc, lsl #32
  400a54:	f2f8ce20 	movk	x0, #0xc671, lsl #48
  400a58:	9bc07c20 	umulh	x0, x1, x0
  400a5c:	d34afc00 	lsr	x0, x0, #10
  400a60:	9b038400 	msub	x0, x0, x3, x1
  400a64:	f8607840 	ldr	x0, [x2, x0, lsl #3]
  400a68:	b4000100 	cbz	x0, 400a88 <FindIpv4+0x58>
  400a6c:	f9400802 	ldr	x2, [x0, #16]
  400a70:	eb02003f 	cmp	x1, x2
  400a74:	54000060 	b.eq	400a80 <FindIpv4+0x50>  // b.none
  400a78:	f9400000 	ldr	x0, [x0]
  400a7c:	17fffffb 	b	400a68 <FindIpv4+0x38>
  400a80:	52800000 	mov	w0, #0x0                   	// #0
  400a84:	d65f03c0 	ret
  400a88:	12800000 	mov	w0, #0xffffffff            	// #-1
  400a8c:	d65f03c0 	ret

0000000000400a90 <DelIpv4>:
  400a90:	f100001f 	cmp	x0, #0x0
  400a94:	7a401824 	ccmp	w1, #0x0, #0x4, ne  // ne = any
  400a98:	54000700 	b.eq	400b78 <DelIpv4+0xe8>  // b.none
  400a9c:	a9bb7bfd 	stp	x29, x30, [sp, #-80]!
  400aa0:	910003fd 	mov	x29, sp
  400aa4:	f90023f9 	str	x25, [sp, #64]
  400aa8:	aa0003f9 	mov	x25, x0
  400aac:	900004a0 	adrp	x0, 494000 <_IO_helper_jumps+0x80>
  400ab0:	a90363f7 	stp	x23, x24, [sp, #48]
  400ab4:	d29801b8 	mov	x24, #0xc00d                	// #49165
  400ab8:	f2bcc738 	movk	x24, #0xe639, lsl #16
  400abc:	a9025bf5 	stp	x21, x22, [sp, #32]
  400ac0:	f2d1ff98 	movk	x24, #0x8ffc, lsl #32
  400ac4:	f9408815 	ldr	x21, [x0, #272]
  400ac8:	2a0103f6 	mov	w22, w1
  400acc:	f2f8ce38 	movk	x24, #0xc671, lsl #48
  400ad0:	d280a537 	mov	x23, #0x529                 	// #1321
  400ad4:	a90153f3 	stp	x19, x20, [sp, #16]
  400ad8:	d2800014 	mov	x20, #0x0                   	// #0
  400adc:	d503201f 	nop
  400ae0:	b40003f5 	cbz	x21, 400b5c <DelIpv4+0xcc>
  400ae4:	f8747b22 	ldr	x2, [x25, x20, lsl #3]
  400ae8:	9bd87c40 	umulh	x0, x2, x24
  400aec:	d34afc00 	lsr	x0, x0, #10
  400af0:	9b178800 	msub	x0, x0, x23, x2
  400af4:	f8607aa0 	ldr	x0, [x21, x0, lsl #3]
  400af8:	b40001e0 	cbz	x0, 400b34 <DelIpv4+0xa4>
  400afc:	d503201f 	nop
  400b00:	f9400803 	ldr	x3, [x0, #16]
  400b04:	f9400013 	ldr	x19, [x0]
  400b08:	eb03005f 	cmp	x2, x3
  400b0c:	540000c1 	b.ne	400b24 <DelIpv4+0x94>  // b.any
  400b10:	f9400402 	ldr	x2, [x0, #8]
  400b14:	f9000053 	str	x19, [x2]
  400b18:	b4000053 	cbz	x19, 400b20 <DelIpv4+0x90>
  400b1c:	f9000662 	str	x2, [x19, #8]
  400b20:	9400508c 	bl	414d50 <__free>
  400b24:	aa1303e0 	mov	x0, x19
  400b28:	b4000073 	cbz	x19, 400b34 <DelIpv4+0xa4>
  400b2c:	f8747b22 	ldr	x2, [x25, x20, lsl #3]
  400b30:	17fffff4 	b	400b00 <DelIpv4+0x70>
  400b34:	91000694 	add	x20, x20, #0x1
  400b38:	6b1402df 	cmp	w22, w20
  400b3c:	54fffd28 	b.hi	400ae0 <DelIpv4+0x50>  // b.pmore
  400b40:	52800000 	mov	w0, #0x0                   	// #0
  400b44:	a94153f3 	ldp	x19, x20, [sp, #16]
  400b48:	a9425bf5 	ldp	x21, x22, [sp, #32]
  400b4c:	a94363f7 	ldp	x23, x24, [sp, #48]
  400b50:	f94023f9 	ldr	x25, [sp, #64]
  400b54:	a8c57bfd 	ldp	x29, x30, [sp], #80
  400b58:	d65f03c0 	ret
  400b5c:	12800000 	mov	w0, #0xffffffff            	// #-1
  400b60:	a94153f3 	ldp	x19, x20, [sp, #16]
  400b64:	a9425bf5 	ldp	x21, x22, [sp, #32]
  400b68:	a94363f7 	ldp	x23, x24, [sp, #48]
  400b6c:	f94023f9 	ldr	x25, [sp, #64]
  400b70:	a8c57bfd 	ldp	x29, x30, [sp], #80
  400b74:	d65f03c0 	ret
  400b78:	12800000 	mov	w0, #0xffffffff            	// #-1
  400b7c:	d65f03c0 	ret

0000000000400b80 <DestoryHashIpv4>:
  400b80:	a9bc7bfd 	stp	x29, x30, [sp, #-64]!
  400b84:	910003fd 	mov	x29, sp
  400b88:	a90363f7 	stp	x23, x24, [sp, #48]
  400b8c:	900004b8 	adrp	x24, 494000 <_IO_helper_jumps+0x80>
  400b90:	f9408b17 	ldr	x23, [x24, #272]
  400b94:	b4000537 	cbz	x23, 400c38 <DestoryHashIpv4+0xb8>
  400b98:	d2852900 	mov	x0, #0x2948                	// #10568
  400b9c:	a9025bf5 	stp	x21, x22, [sp, #32]
  400ba0:	aa1703f5 	mov	x21, x23
  400ba4:	8b0002f6 	add	x22, x23, x0
  400ba8:	a90153f3 	stp	x19, x20, [sp, #16]
  400bac:	d503201f 	nop
  400bb0:	f94002b4 	ldr	x20, [x21]
  400bb4:	b4000254 	cbz	x20, 400bfc <DestoryHashIpv4+0x7c>
  400bb8:	f9400293 	ldr	x19, [x20]
  400bbc:	b4000393 	cbz	x19, 400c2c <DestoryHashIpv4+0xac>
  400bc0:	aa1303f4 	mov	x20, x19
  400bc4:	f9400273 	ldr	x19, [x19]
  400bc8:	f9400680 	ldr	x0, [x20, #8]
  400bcc:	a9400801 	ldp	x1, x2, [x0]
  400bd0:	f9000041 	str	x1, [x2]
  400bd4:	b4000041 	cbz	x1, 400bdc <DestoryHashIpv4+0x5c>
  400bd8:	f9000422 	str	x2, [x1, #8]
  400bdc:	9400505d 	bl	414d50 <__free>
  400be0:	b5ffff13 	cbnz	x19, 400bc0 <DestoryHashIpv4+0x40>
  400be4:	a9400680 	ldp	x0, x1, [x20]
  400be8:	f9000020 	str	x0, [x1]
  400bec:	b4000040 	cbz	x0, 400bf4 <DestoryHashIpv4+0x74>
  400bf0:	f9000401 	str	x1, [x0, #8]
  400bf4:	aa1403e0 	mov	x0, x20
  400bf8:	94005056 	bl	414d50 <__free>
  400bfc:	910022b5 	add	x21, x21, #0x8
  400c00:	eb1602bf 	cmp	x21, x22
  400c04:	54fffd61 	b.ne	400bb0 <DestoryHashIpv4+0x30>  // b.any
  400c08:	aa1703e0 	mov	x0, x23
  400c0c:	94005051 	bl	414d50 <__free>
  400c10:	a94153f3 	ldp	x19, x20, [sp, #16]
  400c14:	f9008b1f 	str	xzr, [x24, #272]
  400c18:	a9425bf5 	ldp	x21, x22, [sp, #32]
  400c1c:	52800000 	mov	w0, #0x0                   	// #0
  400c20:	a94363f7 	ldp	x23, x24, [sp, #48]
  400c24:	a8c47bfd 	ldp	x29, x30, [sp], #64
  400c28:	d65f03c0 	ret
  400c2c:	f9400680 	ldr	x0, [x20, #8]
  400c30:	f900001f 	str	xzr, [x0]
  400c34:	17fffff0 	b	400bf4 <DestoryHashIpv4+0x74>
  400c38:	12800000 	mov	w0, #0xffffffff            	// #-1
  400c3c:	17fffff9 	b	400c20 <DestoryHashIpv4+0xa0>

0000000000400c40 <generate_random_ipv4>:
  400c40:	a9be7bfd 	stp	x29, x30, [sp, #-32]!
  400c44:	910003fd 	mov	x29, sp
  400c48:	a90153f3 	stp	x19, x20, [sp, #16]
  400c4c:	94001859 	bl	406db0 <rand>
  400c50:	2a0003f4 	mov	w20, w0
  400c54:	94001857 	bl	406db0 <rand>
  400c58:	12001c01 	and	w1, w0, #0xff
  400c5c:	6b1403f3 	negs	w19, w20
  400c60:	12001e94 	and	w20, w20, #0xff
  400c64:	12001e73 	and	w19, w19, #0xff
  400c68:	5a934693 	csneg	w19, w20, w19, mi  // mi = first
  400c6c:	6b0003e0 	negs	w0, w0
  400c70:	12001c00 	and	w0, w0, #0xff
  400c74:	5a804420 	csneg	w0, w1, w0, mi  // mi = first
  400c78:	53103c00 	lsl	w0, w0, #16
  400c7c:	2a136013 	orr	w19, w0, w19, lsl #24
  400c80:	9400184c 	bl	406db0 <rand>
  400c84:	2a0003f4 	mov	w20, w0
  400c88:	9400184a 	bl	406db0 <rand>
  400c8c:	12001c02 	and	w2, w0, #0xff
  400c90:	6b1403e1 	negs	w1, w20
  400c94:	12001e94 	and	w20, w20, #0xff
  400c98:	12001c21 	and	w1, w1, #0xff
  400c9c:	5a814681 	csneg	w1, w20, w1, mi  // mi = first
  400ca0:	6b0003e0 	negs	w0, w0
  400ca4:	12001c00 	and	w0, w0, #0xff
  400ca8:	5a804440 	csneg	w0, w2, w0, mi  // mi = first
  400cac:	2a012000 	orr	w0, w0, w1, lsl #8
  400cb0:	2a130000 	orr	w0, w0, w19
  400cb4:	a94153f3 	ldp	x19, x20, [sp, #16]
  400cb8:	93407c00 	sxtw	x0, w0
  400cbc:	a8c27bfd 	ldp	x29, x30, [sp], #32
  400cc0:	d65f03c0 	ret

0000000000400cc4 <m5_arm>:
  400cc4:	ff000110 	.word	0xff000110
  400cc8:	d65f03c0 	ret

0000000000400ccc <m5_quiesce>:
  400ccc:	ff010110 	.word	0xff010110
  400cd0:	d65f03c0 	ret

0000000000400cd4 <m5_quiesce_ns>:
  400cd4:	ff020110 	.word	0xff020110
  400cd8:	d65f03c0 	ret

0000000000400cdc <m5_quiesce_cycle>:
  400cdc:	ff030110 	.word	0xff030110
  400ce0:	d65f03c0 	ret

0000000000400ce4 <m5_quiesce_time>:
  400ce4:	ff040110 	.word	0xff040110
  400ce8:	d65f03c0 	ret

0000000000400cec <m5_rpns>:
  400cec:	ff070110 	.word	0xff070110
  400cf0:	d65f03c0 	ret

0000000000400cf4 <m5_wake_cpu>:
  400cf4:	ff090110 	.word	0xff090110
  400cf8:	d65f03c0 	ret

0000000000400cfc <m5_exit>:
  400cfc:	ff210110 	.word	0xff210110
  400d00:	d65f03c0 	ret

0000000000400d04 <m5_fail>:
  400d04:	ff220110 	.word	0xff220110
  400d08:	d65f03c0 	ret

0000000000400d0c <m5_sum>:
  400d0c:	ff230110 	.word	0xff230110
  400d10:	d65f03c0 	ret

0000000000400d14 <m5_init_param>:
  400d14:	ff300110 	.word	0xff300110
  400d18:	d65f03c0 	ret

0000000000400d1c <m5_load_symbol>:
  400d1c:	ff310110 	.word	0xff310110
  400d20:	d65f03c0 	ret

0000000000400d24 <m5_reset_stats>:
  400d24:	ff400110 	.word	0xff400110
  400d28:	d65f03c0 	ret

0000000000400d2c <m5_dump_stats>:
  400d2c:	ff410110 	.word	0xff410110
  400d30:	d65f03c0 	ret

0000000000400d34 <m5_dump_reset_stats>:
  400d34:	ff420110 	.word	0xff420110
  400d38:	d65f03c0 	ret

0000000000400d3c <m5_checkpoint>:
  400d3c:	ff430110 	.word	0xff430110
  400d40:	d65f03c0 	ret

0000000000400d44 <m5_write_file>:
  400d44:	ff4f0110 	.word	0xff4f0110
  400d48:	d65f03c0 	ret

0000000000400d4c <m5_read_file>:
  400d4c:	ff500110 	.word	0xff500110
  400d50:	d65f03c0 	ret

0000000000400d54 <m5_debug_break>:
  400d54:	ff510110 	.word	0xff510110
  400d58:	d65f03c0 	ret

0000000000400d5c <m5_switch_cpu>:
  400d5c:	ff520110 	.word	0xff520110
  400d60:	d65f03c0 	ret

0000000000400d64 <m5_add_symbol>:
  400d64:	ff530110 	.word	0xff530110
  400d68:	d65f03c0 	ret

0000000000400d6c <m5_panic>:
  400d6c:	ff540110 	.word	0xff540110
  400d70:	d65f03c0 	ret

0000000000400d74 <m5_work_begin>:
  400d74:	ff5a0110 	.word	0xff5a0110
  400d78:	d65f03c0 	ret

0000000000400d7c <m5_work_end>:
  400d7c:	ff5b0110 	.word	0xff5b0110
  400d80:	d65f03c0 	ret

0000000000400d84 <m5_dist_toggle_sync>:
  400d84:	ff620110 	.word	0xff620110
  400d88:	d65f03c0 	ret

0000000000400d8c <m5_workload>:
  400d8c:	ff700110 	.word	0xff700110
  400d90:	d65f03c0 	ret
  400d94:	d503201f 	nop
  400d98:	d503201f 	nop
  400d9c:	d503201f 	nop

0000000000400da0 <call_fini>:
  400da0:	a9be7bfd 	stp	x29, x30, [sp, #-32]!
  400da4:	d0000460 	adrp	x0, 48e000 <__FRAME_END__+0xfb30>
  400da8:	91218000 	add	x0, x0, #0x860
  400dac:	910003fd 	mov	x29, sp
  400db0:	a90153f3 	stp	x19, x20, [sp, #16]
  400db4:	d0000473 	adrp	x19, 48e000 <__FRAME_END__+0xfb30>
  400db8:	9121a273 	add	x19, x19, #0x868
  400dbc:	cb000273 	sub	x19, x19, x0
  400dc0:	9343fe73 	asr	x19, x19, #3
  400dc4:	b40000f3 	cbz	x19, 400de0 <call_fini+0x40>
  400dc8:	d0000474 	adrp	x20, 48e000 <__FRAME_END__+0xfb30>
  400dcc:	91216294 	add	x20, x20, #0x858
  400dd0:	f8737a80 	ldr	x0, [x20, x19, lsl #3]
  400dd4:	d63f0000 	blr	x0
  400dd8:	f1000673 	subs	x19, x19, #0x1
  400ddc:	54ffffa1 	b.ne	400dd0 <call_fini+0x30>  // b.any
  400de0:	a94153f3 	ldp	x19, x20, [sp, #16]
  400de4:	a8c27bfd 	ldp	x29, x30, [sp], #32
  400de8:	14015e7b 	b	4587d4 <_fini>
  400dec:	d503201f 	nop

0000000000400df0 <__libc_start_call_main>:
  400df0:	a9af7bfd 	stp	x29, x30, [sp, #-272]!
  400df4:	910003fd 	mov	x29, sp
  400df8:	f9000fe0 	str	x0, [sp, #24]
  400dfc:	9100e3e0 	add	x0, sp, #0x38
  400e00:	b90027e1 	str	w1, [sp, #36]
  400e04:	f90017e2 	str	x2, [sp, #40]
  400e08:	940012de 	bl	405980 <_setjmp>
  400e0c:	350001e0 	cbnz	w0, 400e48 <__libc_start_call_main+0x58>
  400e10:	d53bd040 	mrs	x0, tpidr_el0
  400e14:	900004c1 	adrp	x1, 498000 <__pthread_keys+0x3090>
  400e18:	d11f0000 	sub	x0, x0, #0x7c0
  400e1c:	9100e3e3 	add	x3, sp, #0x38
  400e20:	f947e822 	ldr	x2, [x1, #4048]
  400e24:	f9408004 	ldr	x4, [x0, #256]
  400e28:	f9008003 	str	x3, [x0, #256]
  400e2c:	f9407c03 	ldr	x3, [x0, #248]
  400e30:	a90f0fe4 	stp	x4, x3, [sp, #240]
  400e34:	b94027e0 	ldr	w0, [sp, #36]
  400e38:	f9400fe3 	ldr	x3, [sp, #24]
  400e3c:	f94017e1 	ldr	x1, [sp, #40]
  400e40:	d63f0060 	blr	x3
  400e44:	94001587 	bl	406460 <exit>
  400e48:	94003a76 	bl	40f820 <__nptl_deallocate_tsd>
  400e4c:	d0000481 	adrp	x1, 492000 <.got.plt+0x18>
  400e50:	12800000 	mov	w0, #0xffffffff            	// #-1
  400e54:	911a2021 	add	x1, x1, #0x688
  400e58:	9401469e 	bl	4528d0 <__aarch64_ldadd4_acq>
  400e5c:	7100041f 	cmp	w0, #0x1
  400e60:	540000a0 	b.eq	400e74 <__libc_start_call_main+0x84>  // b.none
  400e64:	d2800ba8 	mov	x8, #0x5d                  	// #93
  400e68:	d2800000 	mov	x0, #0x0                   	// #0
  400e6c:	d4000001 	svc	#0x0
  400e70:	17fffffe 	b	400e68 <__libc_start_call_main+0x78>
  400e74:	52800000 	mov	w0, #0x0                   	// #0
  400e78:	9400157a 	bl	406460 <exit>
  400e7c:	d503201f 	nop

0000000000400e80 <__libc_start_main>:
  400e80:	a9b67bfd 	stp	x29, x30, [sp, #-160]!
  400e84:	910003fd 	mov	x29, sp
  400e88:	a90153f3 	stp	x19, x20, [sp, #16]
  400e8c:	2a0103f3 	mov	w19, w1
  400e90:	aa0203f4 	mov	x20, x2
  400e94:	b0000481 	adrp	x1, 491000 <tunable_list+0x528>
  400e98:	900004c2 	adrp	x2, 498000 <__pthread_keys+0x3090>
  400e9c:	a90683e2 	stp	x2, x0, [sp, #104]
  400ea0:	8b33ce80 	add	x0, x20, w19, sxtw #3
  400ea4:	91002000 	add	x0, x0, #0x8
  400ea8:	f9039c26 	str	x6, [x1, #1848]
  400eac:	f907e840 	str	x0, [x2, #4048]
  400eb0:	f9003fe5 	str	x5, [sp, #120]
  400eb4:	d503201f 	nop
  400eb8:	f8408401 	ldr	x1, [x0], #8
  400ebc:	b5ffffe1 	cbnz	x1, 400eb8 <__libc_start_main+0x38>
  400ec0:	9400770c 	bl	41eaf0 <_dl_aux_init>
  400ec4:	b00004c1 	adrp	x1, 499000 <_r_debug_extended+0x20>
  400ec8:	f9402820 	ldr	x0, [x1, #80]
  400ecc:	b40009c0 	cbz	x0, 401004 <__libc_start_main+0x184>
  400ed0:	a9025bf5 	stp	x21, x22, [sp, #32]
  400ed4:	a90363f7 	stp	x23, x24, [sp, #48]
  400ed8:	910223f8 	add	x24, sp, #0x88
  400edc:	a9046bf9 	stp	x25, x26, [sp, #64]
  400ee0:	a90573fb 	stp	x27, x28, [sp, #80]
  400ee4:	94007a9b 	bl	41f950 <__libc_init_secure>
  400ee8:	f94037e0 	ldr	x0, [sp, #104]
  400eec:	f947e800 	ldr	x0, [x0, #4048]
  400ef0:	94007478 	bl	41e0d0 <__tunables_init>
  400ef4:	aa1803e1 	mov	x1, x24
  400ef8:	d2800002 	mov	x2, #0x0                   	// #0
  400efc:	528000a0 	mov	w0, #0x5                   	// #5
  400f00:	94007608 	bl	41e720 <__tunable_get_val>
  400f04:	f94047f9 	ldr	x25, [sp, #136]
  400f08:	b4000199 	cbz	x25, 400f38 <__libc_start_main+0xb8>
  400f0c:	d0000477 	adrp	x23, 48e000 <__FRAME_END__+0xfb30>
  400f10:	9121a2f6 	add	x22, x23, #0x868
  400f14:	52800015 	mov	w21, #0x0                   	// #0
  400f18:	f94002c1 	ldr	x1, [x22]
  400f1c:	aa1903e0 	mov	x0, x25
  400f20:	94005518 	bl	416380 <strcmp>
  400f24:	34000920 	cbz	w0, 401048 <__libc_start_main+0x1c8>
  400f28:	110006b5 	add	w21, w21, #0x1
  400f2c:	910042d6 	add	x22, x22, #0x10
  400f30:	71002abf 	cmp	w21, #0xa
  400f34:	54ffff21 	b.ne	400f18 <__libc_start_main+0x98>  // b.any
  400f38:	b00004d5 	adrp	x21, 499000 <_r_debug_extended+0x20>
  400f3c:	f9401ea0 	ldr	x0, [x21, #56]
  400f40:	92750001 	and	x1, x0, #0x800
  400f44:	36580040 	tbz	w0, #11, 400f4c <__libc_start_main+0xcc>
  400f48:	d5380001 	mrs	x1, midr_el1
  400f4c:	b00004c0 	adrp	x0, 499000 <_r_debug_extended+0x20>
  400f50:	91044003 	add	x3, x0, #0x110
  400f54:	f9008801 	str	x1, [x0, #272]
  400f58:	d53b00e1 	mrs	x1, dczid_el0
  400f5c:	372000a1 	tbnz	w1, #4, 400f70 <__libc_start_main+0xf0>
  400f60:	12000c21 	and	w1, w1, #0xf
  400f64:	52800082 	mov	w2, #0x4                   	// #4
  400f68:	1ac12041 	lsl	w1, w2, w1
  400f6c:	b9000861 	str	w1, [x3, #8]
  400f70:	b00004d7 	adrp	x23, 499000 <_r_debug_extended+0x20>
  400f74:	91044000 	add	x0, x0, #0x110
  400f78:	f9401ea2 	ldr	x2, [x21, #56]
  400f7c:	b000049a 	adrp	x26, 491000 <tunable_list+0x528>
  400f80:	f9401ae1 	ldr	x1, [x23, #48]
  400f84:	3900341f 	strb	wzr, [x0, #13]
  400f88:	53165842 	ubfx	w2, w2, #22, #1
  400f8c:	39003802 	strb	w2, [x0, #14]
  400f90:	53114421 	ubfx	w1, w1, #17, #1
  400f94:	39003001 	strb	w1, [x0, #12]
  400f98:	97fffdea 	bl	400740 <_dl_relocate_static_pie>
  400f9c:	f9468342 	ldr	x2, [x26, #3328]
  400fa0:	f9464756 	ldr	x22, [x26, #3208]
  400fa4:	eb16005f 	cmp	x2, x22
  400fa8:	540005e2 	b.cs	401064 <__libc_start_main+0x1e4>  // b.hs, b.nlast
  400fac:	aa0203fb 	mov	x27, x2
  400fb0:	d2800319 	mov	x25, #0x18                  	// #24
  400fb4:	1400000d 	b	400fe8 <__libc_start_main+0x168>
  400fb8:	f9400b64 	ldr	x4, [x27, #16]
  400fbc:	9100637b 	add	x27, x27, #0x18
  400fc0:	f9401ea0 	ldr	x0, [x21, #56]
  400fc4:	a90883f9 	stp	x25, x0, [sp, #136]
  400fc8:	f9401ae1 	ldr	x1, [x23, #48]
  400fcc:	f9004fe1 	str	x1, [sp, #152]
  400fd0:	b2420000 	orr	x0, x0, #0x4000000000000000
  400fd4:	aa1803e1 	mov	x1, x24
  400fd8:	d63f0080 	blr	x4
  400fdc:	f9000380 	str	x0, [x28]
  400fe0:	eb16037f 	cmp	x27, x22
  400fe4:	54000402 	b.cs	401064 <__libc_start_main+0x1e4>  // b.hs, b.nlast
  400fe8:	b9400b60 	ldr	w0, [x27, #8]
  400fec:	f940037c 	ldr	x28, [x27]
  400ff0:	f110201f 	cmp	x0, #0x408
  400ff4:	54fffe20 	b.eq	400fb8 <__libc_start_main+0x138>  // b.none
  400ff8:	900002c0 	adrp	x0, 458000 <free_modules_db+0x40>
  400ffc:	91222000 	add	x0, x0, #0x888
  401000:	940025f4 	bl	40a7d0 <__libc_fatal>
  401004:	f0ffffe0 	adrp	x0, 400000 <__ehdr_start>
  401008:	91000000 	add	x0, x0, #0x0
  40100c:	79406c02 	ldrh	w2, [x0, #54]
  401010:	7100e05f 	cmp	w2, #0x38
  401014:	54000d80 	b.eq	4011c4 <__libc_start_main+0x344>  // b.none
  401018:	f00002a3 	adrp	x3, 458000 <free_modules_db+0x40>
  40101c:	f00002a1 	adrp	x1, 458000 <free_modules_db+0x40>
  401020:	f00002a0 	adrp	x0, 458000 <free_modules_db+0x40>
  401024:	9123e063 	add	x3, x3, #0x8f8
  401028:	91210021 	add	x1, x1, #0x840
  40102c:	91216000 	add	x0, x0, #0x858
  401030:	52802342 	mov	w2, #0x11a                 	// #282
  401034:	a9025bf5 	stp	x21, x22, [sp, #32]
  401038:	a90363f7 	stp	x23, x24, [sp, #48]
  40103c:	a9046bf9 	stp	x25, x26, [sp, #64]
  401040:	a90573fb 	stp	x27, x28, [sp, #80]
  401044:	9400018f 	bl	401680 <__assert_fail>
  401048:	9121a2f7 	add	x23, x23, #0x868
  40104c:	8b35d2f5 	add	x21, x23, w21, sxtw #4
  401050:	f94006a1 	ldr	x1, [x21, #8]
  401054:	b100043f 	cmn	x1, #0x1
  401058:	54fff700 	b.eq	400f38 <__libc_start_main+0xb8>  // b.none
  40105c:	900004d5 	adrp	x21, 499000 <_r_debug_extended+0x20>
  401060:	17ffffbb 	b	400f4c <__libc_start_main+0xcc>
  401064:	90000496 	adrp	x22, 491000 <tunable_list+0x528>
  401068:	940000a6 	bl	401300 <__libc_setup_tls>
  40106c:	f0000475 	adrp	x21, 490000 <_nl_C_LC_MONETARY+0x138>
  401070:	f9438ec0 	ldr	x0, [x22, #1816]
  401074:	f9400000 	ldr	x0, [x0]
  401078:	9278dc00 	and	x0, x0, #0xffffffffffffff00
  40107c:	f904f6a0 	str	x0, [x21, #2536]
  401080:	940079e8 	bl	41f820 <_dl_discover_osversion>
  401084:	37f80ba0 	tbnz	w0, #31, 4011f8 <__libc_start_main+0x378>
  401088:	900004c1 	adrp	x1, 499000 <_r_debug_extended+0x20>
  40108c:	b9409822 	ldr	w2, [x1, #152]
  401090:	35000ae2 	cbnz	w2, 4011ec <__libc_start_main+0x36c>
  401094:	b9009820 	str	w0, [x1, #152]
  401098:	5280dfe1 	mov	w1, #0x6ff                 	// #1791
  40109c:	72a00061 	movk	w1, #0x3, lsl #16
  4010a0:	6b01001f 	cmp	w0, w1
  4010a4:	540009ed 	b.le	4011e0 <__libc_start_main+0x360>
  4010a8:	f946db5a 	ldr	x26, [x26, #3504]
  4010ac:	b400005a 	cbz	x26, 4010b4 <__libc_start_main+0x234>
  4010b0:	d503201f 	nop
  4010b4:	f9438ec0 	ldr	x0, [x22, #1816]
  4010b8:	9127a2b5 	add	x21, x21, #0x9e8
  4010bc:	f9400400 	ldr	x0, [x0, #8]
  4010c0:	f90006a0 	str	x0, [x21, #8]
  4010c4:	f9403fe0 	ldr	x0, [sp, #120]
  4010c8:	b4000080 	cbz	x0, 4010d8 <__libc_start_main+0x258>
  4010cc:	d2800002 	mov	x2, #0x0                   	// #0
  4010d0:	d2800001 	mov	x1, #0x0                   	// #0
  4010d4:	9400156f 	bl	406690 <__cxa_atexit>
  4010d8:	52800020 	mov	w0, #0x1                   	// #1
  4010dc:	94007a35 	bl	41f9b0 <__libc_early_init>
  4010e0:	f94037e0 	ldr	x0, [sp, #104]
  4010e4:	aa1403e1 	mov	x1, x20
  4010e8:	f947e802 	ldr	x2, [x0, #4048]
  4010ec:	2a1303e0 	mov	w0, w19
  4010f0:	94007a68 	bl	41fa90 <__libc_init_first>
  4010f4:	f0ffffe0 	adrp	x0, 400000 <__ehdr_start>
  4010f8:	d2800002 	mov	x2, #0x0                   	// #0
  4010fc:	91368000 	add	x0, x0, #0xda0
  401100:	d2800001 	mov	x1, #0x0                   	// #0
  401104:	94001563 	bl	406690 <__cxa_atexit>
  401108:	90000480 	adrp	x0, 491000 <tunable_list+0x528>
  40110c:	b9474000 	ldr	w0, [x0, #1856]
  401110:	350007a0 	cbnz	w0, 401204 <__libc_start_main+0x384>
  401114:	f94037e0 	ldr	x0, [sp, #104]
  401118:	b0000477 	adrp	x23, 48e000 <__FRAME_END__+0xfb30>
  40111c:	b0000478 	adrp	x24, 48e000 <__FRAME_END__+0xfb30>
  401120:	912142f7 	add	x23, x23, #0x850
  401124:	91214318 	add	x24, x24, #0x850
  401128:	d2800015 	mov	x21, #0x0                   	// #0
  40112c:	cb1802f7 	sub	x23, x23, x24
  401130:	f947e816 	ldr	x22, [x0, #4048]
  401134:	9343fef7 	asr	x23, x23, #3
  401138:	b4000157 	cbz	x23, 401160 <__libc_start_main+0x2e0>
  40113c:	d503201f 	nop
  401140:	f8757b03 	ldr	x3, [x24, x21, lsl #3]
  401144:	aa1603e2 	mov	x2, x22
  401148:	910006b5 	add	x21, x21, #0x1
  40114c:	aa1403e1 	mov	x1, x20
  401150:	2a1303e0 	mov	w0, w19
  401154:	d63f0060 	blr	x3
  401158:	eb1502ff 	cmp	x23, x21
  40115c:	54ffff21 	b.ne	401140 <__libc_start_main+0x2c0>  // b.any
  401160:	b0000477 	adrp	x23, 48e000 <__FRAME_END__+0xfb30>
  401164:	b0000478 	adrp	x24, 48e000 <__FRAME_END__+0xfb30>
  401168:	912182f7 	add	x23, x23, #0x860
  40116c:	91214318 	add	x24, x24, #0x850
  401170:	cb1802f7 	sub	x23, x23, x24
  401174:	d2800015 	mov	x21, #0x0                   	// #0
  401178:	97fffc42 	bl	400280 <_init>
  40117c:	9343fef7 	asr	x23, x23, #3
  401180:	b4000157 	cbz	x23, 4011a8 <__libc_start_main+0x328>
  401184:	d503201f 	nop
  401188:	f8757b03 	ldr	x3, [x24, x21, lsl #3]
  40118c:	aa1603e2 	mov	x2, x22
  401190:	910006b5 	add	x21, x21, #0x1
  401194:	aa1403e1 	mov	x1, x20
  401198:	2a1303e0 	mov	w0, w19
  40119c:	d63f0060 	blr	x3
  4011a0:	eb1502ff 	cmp	x23, x21
  4011a4:	54ffff21 	b.ne	401188 <__libc_start_main+0x308>  // b.any
  4011a8:	d2800001 	mov	x1, #0x0                   	// #0
  4011ac:	d2800000 	mov	x0, #0x0                   	// #0
  4011b0:	94007090 	bl	41d3f0 <_dl_debug_initialize>
  4011b4:	f9403be0 	ldr	x0, [sp, #112]
  4011b8:	aa1403e2 	mov	x2, x20
  4011bc:	2a1303e1 	mov	w1, w19
  4011c0:	97ffff0c 	bl	400df0 <__libc_start_call_main>
  4011c4:	f9401002 	ldr	x2, [x0, #32]
  4011c8:	900004c3 	adrp	x3, 499000 <_r_debug_extended+0x20>
  4011cc:	79407004 	ldrh	w4, [x0, #56]
  4011d0:	f9002464 	str	x4, [x3, #72]
  4011d4:	8b000040 	add	x0, x2, x0
  4011d8:	f9002820 	str	x0, [x1, #80]
  4011dc:	17ffff3d 	b	400ed0 <__libc_start_main+0x50>
  4011e0:	f00002a0 	adrp	x0, 458000 <free_modules_db+0x40>
  4011e4:	9122e000 	add	x0, x0, #0x8b8
  4011e8:	9400257a 	bl	40a7d0 <__libc_fatal>
  4011ec:	6b00005f 	cmp	w2, w0
  4011f0:	54fff549 	b.ls	401098 <__libc_start_main+0x218>  // b.plast
  4011f4:	17ffffa8 	b	401094 <__libc_start_main+0x214>
  4011f8:	f00002a0 	adrp	x0, 458000 <free_modules_db+0x40>
  4011fc:	91234000 	add	x0, x0, #0x8d0
  401200:	94002574 	bl	40a7d0 <__libc_fatal>
  401204:	94000033 	bl	4012d0 <__libc_check_standard_fds>
  401208:	17ffffc3 	b	401114 <__libc_start_main+0x294>
  40120c:	d503201f 	nop

0000000000401210 <check_one_fd>:
  401210:	a9b57bfd 	stp	x29, x30, [sp, #-176]!
  401214:	910003fd 	mov	x29, sp
  401218:	a90153f3 	stp	x19, x20, [sp, #16]
  40121c:	2a0103f4 	mov	w20, w1
  401220:	2a0003f3 	mov	w19, w0
  401224:	52800021 	mov	w1, #0x1                   	// #1
  401228:	94006876 	bl	41b400 <__fcntl64_nocancel>
  40122c:	3100041f 	cmn	w0, #0x1
  401230:	54000080 	b.eq	401240 <check_one_fd+0x30>  // b.none
  401234:	a94153f3 	ldp	x19, x20, [sp, #16]
  401238:	a8cb7bfd 	ldp	x29, x30, [sp], #176
  40123c:	d65f03c0 	ret
  401240:	90000480 	adrp	x0, 491000 <tunable_list+0x528>
  401244:	f946f000 	ldr	x0, [x0, #3552]
  401248:	d53bd041 	mrs	x1, tpidr_el0
  40124c:	b8606820 	ldr	w0, [x1, x0]
  401250:	7100241f 	cmp	w0, #0x9
  401254:	54ffff01 	b.ne	401234 <check_one_fd+0x24>  // b.any
  401258:	f90013f5 	str	x21, [sp, #32]
  40125c:	7140229f 	cmp	w20, #0x8, lsl #12
  401260:	54000301 	b.ne	4012c0 <check_one_fd+0xb0>  // b.any
  401264:	f00002a0 	adrp	x0, 458000 <free_modules_db+0x40>
  401268:	91264000 	add	x0, x0, #0x990
  40126c:	d2802075 	mov	x21, #0x103                 	// #259
  401270:	2a1403e1 	mov	w1, w20
  401274:	52800002 	mov	w2, #0x0                   	// #0
  401278:	940068ca 	bl	41b5a0 <__open64_nocancel>
  40127c:	6b00027f 	cmp	w19, w0
  401280:	54000081 	b.ne	401290 <check_one_fd+0x80>  // b.any
  401284:	9100c3e1 	add	x1, sp, #0x30
  401288:	940065b2 	bl	41a950 <__fstat>
  40128c:	34000080 	cbz	w0, 40129c <check_one_fd+0x8c>
  401290:	d4207d00 	brk	#0x3e8
  401294:	d4207d00 	brk	#0x3e8
  401298:	17fffffe 	b	401290 <check_one_fd+0x80>
  40129c:	b94043e0 	ldr	w0, [sp, #64]
  4012a0:	12140c00 	and	w0, w0, #0xf000
  4012a4:	7140081f 	cmp	w0, #0x2, lsl #12
  4012a8:	54ffff41 	b.ne	401290 <check_one_fd+0x80>  // b.any
  4012ac:	f9402be0 	ldr	x0, [sp, #80]
  4012b0:	eb15001f 	cmp	x0, x21
  4012b4:	54fffee1 	b.ne	401290 <check_one_fd+0x80>  // b.any
  4012b8:	f94013f5 	ldr	x21, [sp, #32]
  4012bc:	17ffffde 	b	401234 <check_one_fd+0x24>
  4012c0:	f00002a0 	adrp	x0, 458000 <free_modules_db+0x40>
  4012c4:	d28020f5 	mov	x21, #0x107                 	// #263
  4012c8:	91260000 	add	x0, x0, #0x980
  4012cc:	17ffffe9 	b	401270 <check_one_fd+0x60>

00000000004012d0 <__libc_check_standard_fds>:
  4012d0:	a9bf7bfd 	stp	x29, x30, [sp, #-16]!
  4012d4:	52900021 	mov	w1, #0x8001                	// #32769
  4012d8:	52800000 	mov	w0, #0x0                   	// #0
  4012dc:	910003fd 	mov	x29, sp
  4012e0:	97ffffcc 	bl	401210 <check_one_fd>
  4012e4:	52900001 	mov	w1, #0x8000                	// #32768
  4012e8:	52800020 	mov	w0, #0x1                   	// #1
  4012ec:	97ffffc9 	bl	401210 <check_one_fd>
  4012f0:	a8c17bfd 	ldp	x29, x30, [sp], #16
  4012f4:	52900001 	mov	w1, #0x8000                	// #32768
  4012f8:	52800040 	mov	w0, #0x2                   	// #2
  4012fc:	17ffffc5 	b	401210 <check_one_fd>

0000000000401300 <__libc_setup_tls>:
  401300:	a9b87bfd 	stp	x29, x30, [sp, #-128]!
  401304:	910003fd 	mov	x29, sp
  401308:	a90153f3 	stp	x19, x20, [sp, #16]
  40130c:	90000493 	adrp	x19, 491000 <tunable_list+0x528>
  401310:	f947f260 	ldr	x0, [x19, #4064]
  401314:	a9025bf5 	stp	x21, x22, [sp, #32]
  401318:	a90363f7 	stp	x23, x24, [sp, #48]
  40131c:	a9046bf9 	stp	x25, x26, [sp, #64]
  401320:	a90573fb 	stp	x27, x28, [sp, #80]
  401324:	f9400018 	ldr	x24, [x0]
  401328:	940072de 	bl	41dea0 <__tls_pre_init_tp>
  40132c:	f9472260 	ldr	x0, [x19, #3648]
  401330:	f9400001 	ldr	x1, [x0]
  401334:	b4000bc1 	cbz	x1, 4014ac <__libc_setup_tls+0x1ac>
  401338:	f9479673 	ldr	x19, [x19, #3880]
  40133c:	f9400260 	ldr	x0, [x19]
  401340:	d37df002 	lsl	x2, x0, #3
  401344:	cb000042 	sub	x2, x2, x0
  401348:	8b020c22 	add	x2, x1, x2, lsl #3
  40134c:	eb02003f 	cmp	x1, x2
  401350:	540000a3 	b.cc	401364 <__libc_setup_tls+0x64>  // b.lo, b.ul, b.last
  401354:	14000056 	b	4014ac <__libc_setup_tls+0x1ac>
  401358:	9100e021 	add	x1, x1, #0x38
  40135c:	eb02003f 	cmp	x1, x2
  401360:	54000a62 	b.cs	4014ac <__libc_setup_tls+0x1ac>  // b.hs, b.nlast
  401364:	b9400020 	ldr	w0, [x1]
  401368:	71001c1f 	cmp	w0, #0x7
  40136c:	54ffff61 	b.ne	401358 <__libc_setup_tls+0x58>  // b.any
  401370:	f940183c 	ldr	x28, [x1, #48]
  401374:	d2800413 	mov	x19, #0x20                  	// #32
  401378:	f9400316 	ldr	x22, [x24]
  40137c:	eb13039f 	cmp	x28, x19
  401380:	f9400822 	ldr	x2, [x1, #16]
  401384:	9a932399 	csel	x25, x28, x19, cs  // cs = hs, nlast
  401388:	d1000723 	sub	x3, x25, #0x1
  40138c:	d2800000 	mov	x0, #0x0                   	// #0
  401390:	8b0202d6 	add	x22, x22, x2
  401394:	cb1903e2 	neg	x2, x25
  401398:	a9060be3 	stp	x3, x2, [sp, #96]
  40139c:	a9425037 	ldp	x23, x20, [x1, #32]
  4013a0:	94007038 	bl	41d480 <_dl_tls_static_surplus_init>
  4013a4:	f100039f 	cmp	x28, #0x0
  4013a8:	d2800020 	mov	x0, #0x1                   	// #1
  4013ac:	9a801385 	csel	x5, x28, x0, ne  // ne = any
  4013b0:	540009c0 	b.eq	4014e8 <__libc_setup_tls+0x1e8>  // b.none
  4013b4:	91003f83 	add	x3, x28, #0xf
  4013b8:	9ac50863 	udiv	x3, x3, x5
  4013bc:	9b057c7a 	mul	x26, x3, x5
  4013c0:	aa1a03fb 	mov	x27, x26
  4013c4:	f0000486 	adrp	x6, 494000 <_IO_helper_jumps+0x80>
  4013c8:	8b190281 	add	x1, x20, x25
  4013cc:	910460d3 	add	x19, x6, #0x118
  4013d0:	a90717e6 	stp	x6, x5, [sp, #112]
  4013d4:	f9408cc0 	ldr	x0, [x6, #280]
  4013d8:	911f0000 	add	x0, x0, #0x7c0
  4013dc:	8b010000 	add	x0, x0, x1
  4013e0:	8b1a0000 	add	x0, x0, x26
  4013e4:	940068e3 	bl	41b770 <__sbrk>
  4013e8:	911f0015 	add	x21, x0, #0x7c0
  4013ec:	d28007c8 	mov	x8, #0x3e                  	// #62
  4013f0:	f94033e0 	ldr	x0, [sp, #96]
  4013f4:	f9000668 	str	x8, [x19, #8]
  4013f8:	f902431b 	str	x27, [x24, #1152]
  4013fc:	aa1703e2 	mov	x2, x23
  401400:	8b0002b5 	add	x21, x21, x0
  401404:	aa1603e1 	mov	x1, x22
  401408:	f94037e0 	ldr	x0, [sp, #104]
  40140c:	8a0002b5 	and	x21, x21, x0
  401410:	8b1a02a0 	add	x0, x21, x26
  401414:	a902fe60 	stp	x0, xzr, [x19, #40]
  401418:	97fffba6 	bl	4002b0 <.plt+0x10>
  40141c:	91006260 	add	x0, x19, #0x18
  401420:	f90002a0 	str	x0, [x21]
  401424:	d51bd055 	msr	tpidr_el0, x21
  401428:	940072a6 	bl	41dec0 <__tls_init_tp>
  40142c:	f9021a78 	str	x24, [x19, #1072]
  401430:	91116304 	add	x4, x24, #0x458
  401434:	8b1c0280 	add	x0, x20, x28
  401438:	a94717e6 	ldp	x6, x5, [sp, #112]
  40143c:	f100039f 	cmp	x28, #0x0
  401440:	d1000400 	sub	x0, x0, #0x1
  401444:	a9017094 	stp	x20, x28, [x4, #16]
  401448:	9a941014 	csel	x20, x0, x20, ne  // ne = any
  40144c:	91206263 	add	x3, x19, #0x818
  401450:	a9005c96 	stp	x22, x23, [x4]
  401454:	d2800021 	mov	x1, #0x1                   	// #1
  401458:	9ac50a94 	udiv	x20, x20, x5
  40145c:	91102262 	add	x2, x19, #0x408
  401460:	f9408cc0 	ldr	x0, [x6, #280]
  401464:	d2800806 	mov	x6, #0x40                  	// #64
  401468:	a9000861 	stp	x1, x2, [x3]
  40146c:	9b056a94 	madd	x20, x20, x5, x26
  401470:	91007c00 	add	x0, x0, #0x1f
  401474:	a9020479 	stp	x25, x1, [x3, #32]
  401478:	8b140000 	add	x0, x0, x20
  40147c:	927be800 	and	x0, x0, #0xffffffffffffffe0
  401480:	f9024701 	str	x1, [x24, #1160]
  401484:	a9425bf5 	ldp	x21, x22, [sp, #32]
  401488:	a94363f7 	ldp	x23, x24, [sp, #48]
  40148c:	a9446bf9 	ldp	x25, x26, [sp, #64]
  401490:	a94573fb 	ldp	x27, x28, [sp, #80]
  401494:	f9020666 	str	x6, [x19, #1032]
  401498:	f9041660 	str	x0, [x19, #2088]
  40149c:	f9041a74 	str	x20, [x19, #2096]
  4014a0:	a94153f3 	ldp	x19, x20, [sp, #16]
  4014a4:	a8c87bfd 	ldp	x29, x30, [sp], #128
  4014a8:	d65f03c0 	ret
  4014ac:	d2800000 	mov	x0, #0x0                   	// #0
  4014b0:	94006ff4 	bl	41d480 <_dl_tls_static_surplus_init>
  4014b4:	928003e0 	mov	x0, #0xffffffffffffffe0    	// #-32
  4014b8:	d280021b 	mov	x27, #0x10                  	// #16
  4014bc:	d2800025 	mov	x5, #0x1                   	// #1
  4014c0:	aa1b03fa 	mov	x26, x27
  4014c4:	d2800419 	mov	x25, #0x20                  	// #32
  4014c8:	d280001c 	mov	x28, #0x0                   	// #0
  4014cc:	d2800016 	mov	x22, #0x0                   	// #0
  4014d0:	d2800017 	mov	x23, #0x0                   	// #0
  4014d4:	d2800014 	mov	x20, #0x0                   	// #0
  4014d8:	f90037e0 	str	x0, [sp, #104]
  4014dc:	d28003e0 	mov	x0, #0x1f                  	// #31
  4014e0:	f90033e0 	str	x0, [sp, #96]
  4014e4:	17ffffb8 	b	4013c4 <__libc_setup_tls+0xc4>
  4014e8:	d280021b 	mov	x27, #0x10                  	// #16
  4014ec:	aa0003e5 	mov	x5, x0
  4014f0:	aa1303f9 	mov	x25, x19
  4014f4:	aa1b03fa 	mov	x26, x27
  4014f8:	17ffffb3 	b	4013c4 <__libc_setup_tls+0xc4>
  4014fc:	d503201f 	nop

0000000000401500 <__tls_get_addr>:
  401500:	d53bd041 	mrs	x1, tpidr_el0
  401504:	f9400400 	ldr	x0, [x0, #8]
  401508:	f9400021 	ldr	x1, [x1]
  40150c:	f9400821 	ldr	x1, [x1, #16]
  401510:	8b000020 	add	x0, x1, x0
  401514:	d65f03c0 	ret
  401518:	d503201f 	nop
  40151c:	d503201f 	nop

0000000000401520 <__assert_fail_base>:
  401520:	d101c3ff 	sub	sp, sp, #0x70
  401524:	a9017bfd 	stp	x29, x30, [sp, #16]
  401528:	910043fd 	add	x29, sp, #0x10
  40152c:	a90253f3 	stp	x19, x20, [sp, #32]
  401530:	90000493 	adrp	x19, 491000 <tunable_list+0x528>
  401534:	aa0403f4 	mov	x20, x4
  401538:	f945fa65 	ldr	x5, [x19, #3056]
  40153c:	a9035bf5 	stp	x21, x22, [sp, #48]
  401540:	aa0003f5 	mov	x21, x0
  401544:	a90463f7 	stp	x23, x24, [sp, #64]
  401548:	aa0203f6 	mov	x22, x2
  40154c:	2a0303f7 	mov	w23, w3
  401550:	f94000a0 	ldr	x0, [x5]
  401554:	f90037e0 	str	x0, [sp, #104]
  401558:	d2800000 	mov	x0, #0x0                   	// #0
  40155c:	aa0103f8 	mov	x24, x1
  401560:	52800020 	mov	w0, #0x1                   	// #1
  401564:	d2800001 	mov	x1, #0x0                   	// #0
  401568:	94003bce 	bl	4104a0 <__pthread_setcancelstate>
  40156c:	f946ea60 	ldr	x0, [x19, #3536]
  401570:	b0000346 	adrp	x6, 46a000 <translit_from_idx+0x13d0>
  401574:	f00002a7 	adrp	x7, 458000 <free_modules_db+0x40>
  401578:	911c40c6 	add	x6, x6, #0x710
  40157c:	912680e7 	add	x7, x7, #0x9a0
  401580:	f9400002 	ldr	x2, [x0]
  401584:	39400040 	ldrb	w0, [x2]
  401588:	7100001f 	cmp	w0, #0x0
  40158c:	9a8610e3 	csel	x3, x7, x6, ne  // ne = any
  401590:	b40006f4 	cbz	x20, 40166c <__assert_fail_base+0x14c>
  401594:	910173e0 	add	x0, sp, #0x5c
  401598:	a90003f8 	stp	x24, x0, [sp]
  40159c:	aa1403e6 	mov	x6, x20
  4015a0:	2a1703e5 	mov	w5, w23
  4015a4:	aa1603e4 	mov	x4, x22
  4015a8:	aa1503e1 	mov	x1, x21
  4015ac:	910183e0 	add	x0, sp, #0x60
  4015b0:	940018e4 	bl	407940 <___asprintf>
  4015b4:	37f80500 	tbnz	w0, #31, 401654 <__assert_fail_base+0x134>
  4015b8:	f94033e2 	ldr	x2, [sp, #96]
  4015bc:	f00002a1 	adrp	x1, 458000 <free_modules_db+0x40>
  4015c0:	d2800000 	mov	x0, #0x0                   	// #0
  4015c4:	9126a021 	add	x1, x1, #0x9a8
  4015c8:	940019c2 	bl	407cd0 <__fxprintf>
  4015cc:	f9476660 	ldr	x0, [x19, #3784]
  4015d0:	f9400000 	ldr	x0, [x0]
  4015d4:	94001adf 	bl	408150 <_IO_fflush>
  4015d8:	f947da73 	ldr	x19, [x19, #4016]
  4015dc:	d2800005 	mov	x5, #0x0                   	// #0
  4015e0:	b9405fe1 	ldr	w1, [sp, #92]
  4015e4:	12800004 	mov	w4, #0xffffffff            	// #-1
  4015e8:	52800443 	mov	w3, #0x22                  	// #34
  4015ec:	52800062 	mov	w2, #0x3                   	// #3
  4015f0:	f9400266 	ldr	x6, [x19]
  4015f4:	d2800000 	mov	x0, #0x0                   	// #0
  4015f8:	0b060021 	add	w1, w1, w6
  4015fc:	4b0603e6 	neg	w6, w6
  401600:	0a060021 	and	w1, w1, w6
  401604:	b9005fe1 	str	w1, [sp, #92]
  401608:	93407c21 	sxtw	x1, w1
  40160c:	940068b1 	bl	41b8d0 <__mmap64>
  401610:	aa0003f3 	mov	x19, x0
  401614:	b100041f 	cmn	x0, #0x1
  401618:	54000180 	b.eq	401648 <__assert_fail_base+0x128>  // b.none
  40161c:	b9405fe2 	ldr	w2, [sp, #92]
  401620:	f94033e1 	ldr	x1, [sp, #96]
  401624:	b8004402 	str	w2, [x0], #4
  401628:	940053a6 	bl	4164c0 <strcpy>
  40162c:	f0000481 	adrp	x1, 494000 <_IO_helper_jumps+0x80>
  401630:	aa1303e0 	mov	x0, x19
  401634:	912b2021 	add	x1, x1, #0xac8
  401638:	940144be 	bl	452930 <__aarch64_swp8_acq>
  40163c:	b4000060 	cbz	x0, 401648 <__assert_fail_base+0x128>
  401640:	b9400001 	ldr	w1, [x0]
  401644:	940068bf 	bl	41b940 <__munmap>
  401648:	f94033e0 	ldr	x0, [sp, #96]
  40164c:	94004dc1 	bl	414d50 <__free>
  401650:	97fffb3c 	bl	400340 <abort>
  401654:	f00002a1 	adrp	x1, 458000 <free_modules_db+0x40>
  401658:	91278021 	add	x1, x1, #0x9e0
  40165c:	d2800242 	mov	x2, #0x12                  	// #18
  401660:	52800040 	mov	w0, #0x2                   	// #2
  401664:	94006563 	bl	41abf0 <__libc_write>
  401668:	97fffb36 	bl	400340 <abort>
  40166c:	aa0603f4 	mov	x20, x6
  401670:	aa0603e7 	mov	x7, x6
  401674:	17ffffc8 	b	401594 <__assert_fail_base+0x74>
  401678:	d503201f 	nop
  40167c:	d503201f 	nop

0000000000401680 <__assert_fail>:
  401680:	a9bd7bfd 	stp	x29, x30, [sp, #-48]!
  401684:	910003fd 	mov	x29, sp
  401688:	a90153f3 	stp	x19, x20, [sp, #16]
  40168c:	aa0003f3 	mov	x19, x0
  401690:	aa0103f4 	mov	x20, x1
  401694:	b0000340 	adrp	x0, 46a000 <translit_from_idx+0x13d0>
  401698:	f00002a1 	adrp	x1, 458000 <free_modules_db+0x40>
  40169c:	91188000 	add	x0, x0, #0x620
  4016a0:	9126c021 	add	x1, x1, #0x9b0
  4016a4:	a9025bf5 	stp	x21, x22, [sp, #32]
  4016a8:	aa0303f6 	mov	x22, x3
  4016ac:	2a0203f5 	mov	w21, w2
  4016b0:	528000a2 	mov	w2, #0x5                   	// #5
  4016b4:	94000007 	bl	4016d0 <__dcgettext>
  4016b8:	aa1603e4 	mov	x4, x22
  4016bc:	2a1503e3 	mov	w3, w21
  4016c0:	aa1403e2 	mov	x2, x20
  4016c4:	aa1303e1 	mov	x1, x19
  4016c8:	97ffff96 	bl	401520 <__assert_fail_base>
  4016cc:	d503201f 	nop

00000000004016d0 <__dcgettext>:
  4016d0:	2a0203e5 	mov	w5, w2
  4016d4:	d2800004 	mov	x4, #0x0                   	// #0
  4016d8:	52800003 	mov	w3, #0x0                   	// #0
  4016dc:	d2800002 	mov	x2, #0x0                   	// #0
  4016e0:	140002c0 	b	4021e0 <__dcigettext>
  4016e4:	d503201f 	nop
  4016e8:	d503201f 	nop
  4016ec:	d503201f 	nop

00000000004016f0 <plural_eval>:
  4016f0:	a9bd7bfd 	stp	x29, x30, [sp, #-48]!
  4016f4:	910003fd 	mov	x29, sp
  4016f8:	a90153f3 	stp	x19, x20, [sp, #16]
  4016fc:	aa0003f3 	mov	x19, x0
  401700:	aa0103f4 	mov	x20, x1
  401704:	f90013f5 	str	x21, [sp, #32]
  401708:	b9400260 	ldr	w0, [x19]
  40170c:	7100081f 	cmp	w0, #0x2
  401710:	54000360 	b.eq	40177c <plural_eval+0x8c>  // b.none
  401714:	540001cc 	b.gt	40174c <plural_eval+0x5c>
  401718:	340006c0 	cbz	w0, 4017f0 <plural_eval+0x100>
  40171c:	7100041f 	cmp	w0, #0x1
  401720:	54000721 	b.ne	401804 <plural_eval+0x114>  // b.any
  401724:	f9400660 	ldr	x0, [x19, #8]
  401728:	aa1403e1 	mov	x1, x20
  40172c:	97fffff1 	bl	4016f0 <plural_eval>
  401730:	f100001f 	cmp	x0, #0x0
  401734:	9a9f17f5 	cset	x21, eq  // eq = none
  401738:	aa1503e0 	mov	x0, x21
  40173c:	a94153f3 	ldp	x19, x20, [sp, #16]
  401740:	f94013f5 	ldr	x21, [sp, #32]
  401744:	a8c37bfd 	ldp	x29, x30, [sp], #48
  401748:	d65f03c0 	ret
  40174c:	aa1403e1 	mov	x1, x20
  401750:	71000c1f 	cmp	w0, #0x3
  401754:	54000581 	b.ne	401804 <plural_eval+0x114>  // b.any
  401758:	f9400660 	ldr	x0, [x19, #8]
  40175c:	97ffffe5 	bl	4016f0 <plural_eval>
  401760:	f100001f 	cmp	x0, #0x0
  401764:	9a9f17e0 	cset	x0, eq  // eq = none
  401768:	8b000e60 	add	x0, x19, x0, lsl #3
  40176c:	f9400813 	ldr	x19, [x0, #16]
  401770:	b9400260 	ldr	w0, [x19]
  401774:	7100081f 	cmp	w0, #0x2
  401778:	54fffce1 	b.ne	401714 <plural_eval+0x24>  // b.any
  40177c:	f9400660 	ldr	x0, [x19, #8]
  401780:	aa1403e1 	mov	x1, x20
  401784:	97ffffdb 	bl	4016f0 <plural_eval>
  401788:	aa0003f5 	mov	x21, x0
  40178c:	b9400661 	ldr	w1, [x19, #4]
  401790:	71003c3f 	cmp	w1, #0xf
  401794:	54000480 	b.eq	401824 <plural_eval+0x134>  // b.none
  401798:	7100383f 	cmp	w1, #0xe
  40179c:	540007a0 	b.eq	401890 <plural_eval+0x1a0>  // b.none
  4017a0:	f9400a60 	ldr	x0, [x19, #16]
  4017a4:	aa1403e1 	mov	x1, x20
  4017a8:	97ffffd2 	bl	4016f0 <plural_eval>
  4017ac:	b9400661 	ldr	w1, [x19, #4]
  4017b0:	aa0003f3 	mov	x19, x0
  4017b4:	7100203f 	cmp	w1, #0x8
  4017b8:	54000900 	b.eq	4018d8 <plural_eval+0x1e8>  // b.none
  4017bc:	54000488 	b.hi	40184c <plural_eval+0x15c>  // b.pmore
  4017c0:	7100143f 	cmp	w1, #0x5
  4017c4:	54000820 	b.eq	4018c8 <plural_eval+0x1d8>  // b.none
  4017c8:	54000349 	b.ls	401830 <plural_eval+0x140>  // b.plast
  4017cc:	cb0002a0 	sub	x0, x21, x0
  4017d0:	7100183f 	cmp	w1, #0x6
  4017d4:	8b1302b5 	add	x21, x21, x19
  4017d8:	9a8002b5 	csel	x21, x21, x0, eq  // eq = none
  4017dc:	aa1503e0 	mov	x0, x21
  4017e0:	a94153f3 	ldp	x19, x20, [sp, #16]
  4017e4:	f94013f5 	ldr	x21, [sp, #32]
  4017e8:	a8c37bfd 	ldp	x29, x30, [sp], #48
  4017ec:	d65f03c0 	ret
  4017f0:	b9400660 	ldr	w0, [x19, #4]
  4017f4:	aa1403f5 	mov	x21, x20
  4017f8:	34fffa00 	cbz	w0, 401738 <plural_eval+0x48>
  4017fc:	7100041f 	cmp	w0, #0x1
  401800:	540000e0 	b.eq	40181c <plural_eval+0x12c>  // b.none
  401804:	d2800015 	mov	x21, #0x0                   	// #0
  401808:	aa1503e0 	mov	x0, x21
  40180c:	a94153f3 	ldp	x19, x20, [sp, #16]
  401810:	f94013f5 	ldr	x21, [sp, #32]
  401814:	a8c37bfd 	ldp	x29, x30, [sp], #48
  401818:	d65f03c0 	ret
  40181c:	f9400675 	ldr	x21, [x19, #8]
  401820:	17ffffc6 	b	401738 <plural_eval+0x48>
  401824:	b4000380 	cbz	x0, 401894 <plural_eval+0x1a4>
  401828:	d2800035 	mov	x21, #0x1                   	// #1
  40182c:	17ffffc3 	b	401738 <plural_eval+0x48>
  401830:	71000c3f 	cmp	w1, #0x3
  401834:	54000580 	b.eq	4018e4 <plural_eval+0x1f4>  // b.none
  401838:	7100103f 	cmp	w1, #0x4
  40183c:	54fffe41 	b.ne	401804 <plural_eval+0x114>  // b.any
  401840:	b4000360 	cbz	x0, 4018ac <plural_eval+0x1bc>
  401844:	9ad30ab5 	udiv	x21, x21, x19
  401848:	17ffffbc 	b	401738 <plural_eval+0x48>
  40184c:	71002c3f 	cmp	w1, #0xb
  401850:	54000360 	b.eq	4018bc <plural_eval+0x1cc>  // b.none
  401854:	54000109 	b.ls	401874 <plural_eval+0x184>  // b.plast
  401858:	7100303f 	cmp	w1, #0xc
  40185c:	54000480 	b.eq	4018ec <plural_eval+0x1fc>  // b.none
  401860:	7100343f 	cmp	w1, #0xd
  401864:	54fffd01 	b.ne	401804 <plural_eval+0x114>  // b.any
  401868:	eb0002bf 	cmp	x21, x0
  40186c:	9a9f07f5 	cset	x21, ne  // ne = any
  401870:	17ffffb2 	b	401738 <plural_eval+0x48>
  401874:	7100243f 	cmp	w1, #0x9
  401878:	54000400 	b.eq	4018f8 <plural_eval+0x208>  // b.none
  40187c:	7100283f 	cmp	w1, #0xa
  401880:	54fffc21 	b.ne	401804 <plural_eval+0x114>  // b.any
  401884:	eb0002bf 	cmp	x21, x0
  401888:	9a9f87f5 	cset	x21, ls  // ls = plast
  40188c:	17ffffab 	b	401738 <plural_eval+0x48>
  401890:	b4fff540 	cbz	x0, 401738 <plural_eval+0x48>
  401894:	f9400a60 	ldr	x0, [x19, #16]
  401898:	aa1403e1 	mov	x1, x20
  40189c:	97ffff95 	bl	4016f0 <plural_eval>
  4018a0:	f100001f 	cmp	x0, #0x0
  4018a4:	9a9f07f5 	cset	x21, ne  // ne = any
  4018a8:	17ffffa4 	b	401738 <plural_eval+0x48>
  4018ac:	52800100 	mov	w0, #0x8                   	// #8
  4018b0:	94001070 	bl	405a70 <raise>
  4018b4:	9ad30ab5 	udiv	x21, x21, x19
  4018b8:	17ffffa0 	b	401738 <plural_eval+0x48>
  4018bc:	eb0002bf 	cmp	x21, x0
  4018c0:	9a9f37f5 	cset	x21, cs  // cs = hs, nlast
  4018c4:	17ffff9d 	b	401738 <plural_eval+0x48>
  4018c8:	b40001e0 	cbz	x0, 401904 <plural_eval+0x214>
  4018cc:	9ad30aa0 	udiv	x0, x21, x19
  4018d0:	9b13d415 	msub	x21, x0, x19, x21
  4018d4:	17ffff99 	b	401738 <plural_eval+0x48>
  4018d8:	eb0002bf 	cmp	x21, x0
  4018dc:	9a9f27f5 	cset	x21, cc  // cc = lo, ul, last
  4018e0:	17ffff96 	b	401738 <plural_eval+0x48>
  4018e4:	9b007eb5 	mul	x21, x21, x0
  4018e8:	17ffff94 	b	401738 <plural_eval+0x48>
  4018ec:	eb0002bf 	cmp	x21, x0
  4018f0:	9a9f17f5 	cset	x21, eq  // eq = none
  4018f4:	17ffff91 	b	401738 <plural_eval+0x48>
  4018f8:	eb0002bf 	cmp	x21, x0
  4018fc:	9a9f97f5 	cset	x21, hi  // hi = pmore
  401900:	17ffff8e 	b	401738 <plural_eval+0x48>
  401904:	52800100 	mov	w0, #0x8                   	// #8
  401908:	9400105a 	bl	405a70 <raise>
  40190c:	17fffff0 	b	4018cc <plural_eval+0x1dc>

0000000000401910 <transcmp>:
  401910:	a9be7bfd 	stp	x29, x30, [sp, #-32]!
  401914:	910003fd 	mov	x29, sp
  401918:	a90153f3 	stp	x19, x20, [sp, #16]
  40191c:	aa0003f4 	mov	x20, x0
  401920:	aa0103f3 	mov	x19, x1
  401924:	f9401000 	ldr	x0, [x0, #32]
  401928:	b40002e0 	cbz	x0, 401984 <transcmp+0x74>
  40192c:	9100e280 	add	x0, x20, #0x38
  401930:	f9401261 	ldr	x1, [x19, #32]
  401934:	b4000241 	cbz	x1, 40197c <transcmp+0x6c>
  401938:	9100e261 	add	x1, x19, #0x38
  40193c:	94005291 	bl	416380 <strcmp>
  401940:	35000180 	cbnz	w0, 401970 <transcmp+0x60>
  401944:	f9400261 	ldr	x1, [x19]
  401948:	f9400280 	ldr	x0, [x20]
  40194c:	9400528d 	bl	416380 <strcmp>
  401950:	35000100 	cbnz	w0, 401970 <transcmp+0x60>
  401954:	f9400a61 	ldr	x1, [x19, #16]
  401958:	f9400a80 	ldr	x0, [x20, #16]
  40195c:	94005289 	bl	416380 <strcmp>
  401960:	35000080 	cbnz	w0, 401970 <transcmp+0x60>
  401964:	b9400a61 	ldr	w1, [x19, #8]
  401968:	b9400a80 	ldr	w0, [x20, #8]
  40196c:	4b010000 	sub	w0, w0, w1
  401970:	a94153f3 	ldp	x19, x20, [sp, #16]
  401974:	a8c27bfd 	ldp	x29, x30, [sp], #32
  401978:	d65f03c0 	ret
  40197c:	f9401e61 	ldr	x1, [x19, #56]
  401980:	17ffffef 	b	40193c <transcmp+0x2c>
  401984:	f9401e80 	ldr	x0, [x20, #56]
  401988:	17ffffea 	b	401930 <transcmp+0x20>
  40198c:	d503201f 	nop

0000000000401990 <_nl_find_msg>:
  401990:	a9b37bfd 	stp	x29, x30, [sp, #-208]!
  401994:	90000487 	adrp	x7, 491000 <tunable_list+0x528>
  401998:	910003fd 	mov	x29, sp
  40199c:	f945f8e6 	ldr	x6, [x7, #3056]
  4019a0:	a90153f3 	stp	x19, x20, [sp, #16]
  4019a4:	b9400805 	ldr	w5, [x0, #8]
  4019a8:	a9025bf5 	stp	x21, x22, [sp, #32]
  4019ac:	a90363f7 	stp	x23, x24, [sp, #48]
  4019b0:	aa0203f8 	mov	x24, x2
  4019b4:	a9046bf9 	stp	x25, x26, [sp, #64]
  4019b8:	a90573fb 	stp	x27, x28, [sp, #80]
  4019bc:	d10043ff 	sub	sp, sp, #0x10
  4019c0:	a90803a7 	stp	x7, x0, [x29, #128]
  4019c4:	f94000c8 	ldr	x8, [x6]
  4019c8:	f90067a8 	str	x8, [x29, #200]
  4019cc:	d2800008 	mov	x8, #0x0                   	// #0
  4019d0:	a90693a1 	stp	x1, x4, [x29, #104]
  4019d4:	b9007ba3 	str	w3, [x29, #120]
  4019d8:	710000bf 	cmp	w5, #0x0
  4019dc:	540010ed 	b.le	401bf8 <_nl_find_msg+0x268>
  4019e0:	f94047a0 	ldr	x0, [x29, #136]
  4019e4:	f9400817 	ldr	x23, [x0, #16]
  4019e8:	b4000d77 	cbz	x23, 401b94 <_nl_find_msg+0x204>
  4019ec:	f94032e0 	ldr	x0, [x23, #96]
  4019f0:	b9402af3 	ldr	w19, [x23, #40]
  4019f4:	b40009e0 	cbz	x0, 401b30 <_nl_find_msg+0x1a0>
  4019f8:	aa1803e0 	mov	x0, x24
  4019fc:	97fffa41 	bl	400300 <.plt+0x60>
  401a00:	aa0003fa 	mov	x26, x0
  401a04:	aa1803e0 	mov	x0, x24
  401a08:	94000fb6 	bl	4058e0 <__hash_string>
  401a0c:	b9406af4 	ldr	w20, [x23, #104]
  401a10:	b9405ae3 	ldr	w3, [x23, #88]
  401a14:	92407f42 	and	x2, x26, #0xffffffff
  401a18:	f9004ba2 	str	x2, [x29, #144]
  401a1c:	51000861 	sub	w1, w3, #0x2
  401a20:	b9009bba 	str	w26, [x29, #152]
  401a24:	f94032f5 	ldr	x21, [x23, #96]
  401a28:	1ac10804 	udiv	w4, w0, w1
  401a2c:	1ac30802 	udiv	w2, w0, w3
  401a30:	1b018084 	msub	w4, w4, w1, w0
  401a34:	11000499 	add	w25, w4, #0x1
  401a38:	1b03805a 	msub	w26, w2, w3, w0
  401a3c:	4b19007b 	sub	w27, w3, w25
  401a40:	4b030336 	sub	w22, w25, w3
  401a44:	14000016 	b	401a9c <_nl_find_msg+0x10c>
  401a48:	b9401aea 	ldr	w10, [x23, #24]
  401a4c:	d37d7f80 	ubfiz	x0, x28, #3, #32
  401a50:	f9401ae1 	ldr	x1, [x23, #48]
  401a54:	8b00002b 	add	x11, x1, x0
  401a58:	b8606820 	ldr	w0, [x1, x0]
  401a5c:	34000c2a 	cbz	w10, 401be0 <_nl_find_msg+0x250>
  401a60:	b9409ba1 	ldr	w1, [x29, #152]
  401a64:	5ac00800 	rev	w0, w0
  401a68:	6b00003f 	cmp	w1, w0
  401a6c:	54000108 	b.hi	401a8c <_nl_find_msg+0xfc>  // b.pmore
  401a70:	b9400560 	ldr	w0, [x11, #4]
  401a74:	f94002e1 	ldr	x1, [x23]
  401a78:	5ac00800 	rev	w0, w0
  401a7c:	8b000021 	add	x1, x1, x0
  401a80:	aa1803e0 	mov	x0, x24
  401a84:	9400523f 	bl	416380 <strcmp>
  401a88:	34000320 	cbz	w0, 401aec <_nl_find_msg+0x15c>
  401a8c:	6b1a037f 	cmp	w27, w26
  401a90:	0b160340 	add	w0, w26, w22
  401a94:	0b190342 	add	w2, w26, w25
  401a98:	1a80805a 	csel	w26, w2, w0, hi  // hi = pmore
  401a9c:	b87a5aa1 	ldr	w1, [x21, w26, uxtw #2]
  401aa0:	7100029f 	cmp	w20, #0x0
  401aa4:	5ac00820 	rev	w0, w1
  401aa8:	1a811001 	csel	w1, w0, w1, ne  // ne = any
  401aac:	34000741 	cbz	w1, 401b94 <_nl_find_msg+0x204>
  401ab0:	5100043c 	sub	w28, w1, #0x1
  401ab4:	6b1c027f 	cmp	w19, w28
  401ab8:	54fffc88 	b.hi	401a48 <_nl_find_msg+0xb8>  // b.pmore
  401abc:	4b130380 	sub	w0, w28, w19
  401ac0:	f94026e1 	ldr	x1, [x23, #72]
  401ac4:	d37cec00 	lsl	x0, x0, #4
  401ac8:	8b000026 	add	x6, x1, x0
  401acc:	f8606820 	ldr	x0, [x1, x0]
  401ad0:	f9404ba1 	ldr	x1, [x29, #144]
  401ad4:	eb01001f 	cmp	x0, x1
  401ad8:	54fffda9 	b.ls	401a8c <_nl_find_msg+0xfc>  // b.plast
  401adc:	f94004c1 	ldr	x1, [x6, #8]
  401ae0:	aa1803e0 	mov	x0, x24
  401ae4:	94005227 	bl	416380 <strcmp>
  401ae8:	35fffd20 	cbnz	w0, 401a8c <_nl_find_msg+0xfc>
  401aec:	aa1c03f6 	mov	x22, x28
  401af0:	2a1303fa 	mov	w26, w19
  401af4:	eb16035f 	cmp	x26, x22
  401af8:	54000848 	b.hi	401c00 <_nl_find_msg+0x270>  // b.pmore
  401afc:	cb1a02da 	sub	x26, x22, x26
  401b00:	f9402ae0 	ldr	x0, [x23, #80]
  401b04:	d37cef5a 	lsl	x26, x26, #4
  401b08:	8b1a0001 	add	x1, x0, x26
  401b0c:	f87a6800 	ldr	x0, [x0, x26]
  401b10:	f9004fa0 	str	x0, [x29, #152]
  401b14:	f9400438 	ldr	x24, [x1, #8]
  401b18:	b9407ba0 	ldr	w0, [x29, #120]
  401b1c:	350008e0 	cbnz	w0, 401c38 <_nl_find_msg+0x2a8>
  401b20:	f9403ba0 	ldr	x0, [x29, #112]
  401b24:	f9404fa1 	ldr	x1, [x29, #152]
  401b28:	f9000001 	str	x1, [x0]
  401b2c:	1400001b 	b	401b98 <_nl_find_msg+0x208>
  401b30:	2a1303fa 	mov	w26, w19
  401b34:	d280001b 	mov	x27, #0x0                   	// #0
  401b38:	aa1a03fc 	mov	x28, x26
  401b3c:	d503201f 	nop
  401b40:	eb1b039f 	cmp	x28, x27
  401b44:	54000289 	b.ls	401b94 <_nl_find_msg+0x204>  // b.plast
  401b48:	8b1b0386 	add	x6, x28, x27
  401b4c:	b9401ae0 	ldr	w0, [x23, #24]
  401b50:	f9401ae2 	ldr	x2, [x23, #48]
  401b54:	d341fcd6 	lsr	x22, x6, #1
  401b58:	7100001f 	cmp	w0, #0x0
  401b5c:	aa1803e0 	mov	x0, x24
  401b60:	f94002e1 	ldr	x1, [x23]
  401b64:	8b160c42 	add	x2, x2, x22, lsl #3
  401b68:	b9400442 	ldr	w2, [x2, #4]
  401b6c:	5ac00843 	rev	w3, w2
  401b70:	1a830042 	csel	w2, w2, w3, eq  // eq = none
  401b74:	8b020021 	add	x1, x1, x2
  401b78:	94005202 	bl	416380 <strcmp>
  401b7c:	7100001f 	cmp	w0, #0x0
  401b80:	540002cb 	b.lt	401bd8 <_nl_find_msg+0x248>  // b.tstop
  401b84:	54fffb80 	b.eq	401af4 <_nl_find_msg+0x164>  // b.none
  401b88:	910006db 	add	x27, x22, #0x1
  401b8c:	eb1b039f 	cmp	x28, x27
  401b90:	54fffdc8 	b.hi	401b48 <_nl_find_msg+0x1b8>  // b.pmore
  401b94:	d2800018 	mov	x24, #0x0                   	// #0
  401b98:	f94043a0 	ldr	x0, [x29, #128]
  401b9c:	f945f814 	ldr	x20, [x0, #3056]
  401ba0:	f94067a0 	ldr	x0, [x29, #200]
  401ba4:	f9400281 	ldr	x1, [x20]
  401ba8:	eb010000 	subs	x0, x0, x1
  401bac:	d2800001 	mov	x1, #0x0                   	// #0
  401bb0:	54003101 	b.ne	4021d0 <_nl_find_msg+0x840>  // b.any
  401bb4:	910003bf 	mov	sp, x29
  401bb8:	aa1803e0 	mov	x0, x24
  401bbc:	a94153f3 	ldp	x19, x20, [sp, #16]
  401bc0:	a9425bf5 	ldp	x21, x22, [sp, #32]
  401bc4:	a94363f7 	ldp	x23, x24, [sp, #48]
  401bc8:	a9446bf9 	ldp	x25, x26, [sp, #64]
  401bcc:	a94573fb 	ldp	x27, x28, [sp, #80]
  401bd0:	a8cd7bfd 	ldp	x29, x30, [sp], #208
  401bd4:	d65f03c0 	ret
  401bd8:	aa1603fc 	mov	x28, x22
  401bdc:	17ffffd9 	b	401b40 <_nl_find_msg+0x1b0>
  401be0:	b9409ba1 	ldr	w1, [x29, #152]
  401be4:	6b00003f 	cmp	w1, w0
  401be8:	54fff528 	b.hi	401a8c <_nl_find_msg+0xfc>  // b.pmore
  401bec:	b9400560 	ldr	w0, [x11, #4]
  401bf0:	f94002e1 	ldr	x1, [x23]
  401bf4:	17ffffa2 	b	401a7c <_nl_find_msg+0xec>
  401bf8:	94000402 	bl	402c00 <_nl_load_domain>
  401bfc:	17ffff79 	b	4019e0 <_nl_find_msg+0x50>
  401c00:	f9401ee1 	ldr	x1, [x23, #56]
  401c04:	d37df2c0 	lsl	x0, x22, #3
  401c08:	b9401ae2 	ldr	w2, [x23, #24]
  401c0c:	8b000023 	add	x3, x1, x0
  401c10:	b860683b 	ldr	w27, [x1, x0]
  401c14:	f94002f8 	ldr	x24, [x23]
  401c18:	b9400460 	ldr	w0, [x3, #4]
  401c1c:	34000702 	cbz	w2, 401cfc <_nl_find_msg+0x36c>
  401c20:	5ac00800 	rev	w0, w0
  401c24:	5ac00b7b 	rev	w27, w27
  401c28:	8b000318 	add	x24, x24, x0
  401c2c:	11000760 	add	w0, w27, #0x1
  401c30:	f9004fa0 	str	x0, [x29, #152]
  401c34:	17ffffb9 	b	401b18 <_nl_find_msg+0x188>
  401c38:	f94037a0 	ldr	x0, [x29, #104]
  401c3c:	b4000460 	cbz	x0, 401cc8 <_nl_find_msg+0x338>
  401c40:	f9400819 	ldr	x25, [x0, #16]
  401c44:	b4000439 	cbz	x25, 401cc8 <_nl_find_msg+0x338>
  401c48:	910202e0 	add	x0, x23, #0x80
  401c4c:	f90033a0 	str	x0, [x29, #96]
  401c50:	940037b4 	bl	40fb20 <___pthread_rwlock_rdlock>
  401c54:	f9403efb 	ldr	x27, [x23, #120]
  401c58:	8b1b0762 	add	x2, x27, x27, lsl #1
  401c5c:	d37df042 	lsl	x2, x2, #3
  401c60:	d100605c 	sub	x28, x2, #0x18
  401c64:	d503201f 	nop
  401c68:	b4000f3b 	cbz	x27, 401e4c <_nl_find_msg+0x4bc>
  401c6c:	f9403ae0 	ldr	x0, [x23, #112]
  401c70:	d100077b 	sub	x27, x27, #0x1
  401c74:	aa1903e1 	mov	x1, x25
  401c78:	8b1c001a 	add	x26, x0, x28
  401c7c:	f87c6800 	ldr	x0, [x0, x28]
  401c80:	d100639c 	sub	x28, x28, #0x18
  401c84:	940051bf 	bl	416380 <strcmp>
  401c88:	35ffff00 	cbnz	w0, 401c68 <_nl_find_msg+0x2d8>
  401c8c:	f94033a0 	ldr	x0, [x29, #96]
  401c90:	94003850 	bl	40fdd0 <___pthread_rwlock_unlock>
  401c94:	f9400740 	ldr	x0, [x26, #8]
  401c98:	b100041f 	cmn	x0, #0x1
  401c9c:	54fff420 	b.eq	401b20 <_nl_find_msg+0x190>  // b.none
  401ca0:	f9400b40 	ldr	x0, [x26, #16]
  401ca4:	b4001c80 	cbz	x0, 402034 <_nl_find_msg+0x6a4>
  401ca8:	b100041f 	cmn	x0, #0x1
  401cac:	54001f00 	b.eq	40208c <_nl_find_msg+0x6fc>  // b.none
  401cb0:	f8767800 	ldr	x0, [x0, x22, lsl #3]
  401cb4:	b4000480 	cbz	x0, 401d44 <_nl_find_msg+0x3b4>
  401cb8:	aa0003f8 	mov	x24, x0
  401cbc:	f8408700 	ldr	x0, [x24], #8
  401cc0:	f9004fa0 	str	x0, [x29, #152]
  401cc4:	17ffff97 	b	401b20 <_nl_find_msg+0x190>
  401cc8:	f000049c 	adrp	x28, 494000 <_IO_helper_jumps+0x80>
  401ccc:	9125e380 	add	x0, x28, #0x978
  401cd0:	b9401801 	ldr	w1, [x0, #24]
  401cd4:	340001c1 	cbz	w1, 401d0c <_nl_find_msg+0x37c>
  401cd8:	f9401019 	ldr	x25, [x0, #32]
  401cdc:	b5fffb79 	cbnz	x25, 401c48 <_nl_find_msg+0x2b8>
  401ce0:	90000480 	adrp	x0, 491000 <tunable_list+0x528>
  401ce4:	f946cc00 	ldr	x0, [x0, #3480]
  401ce8:	d53bd041 	mrs	x1, tpidr_el0
  401cec:	f8606820 	ldr	x0, [x1, x0]
  401cf0:	f9400000 	ldr	x0, [x0]
  401cf4:	f9405819 	ldr	x25, [x0, #176]
  401cf8:	17ffffd4 	b	401c48 <_nl_find_msg+0x2b8>
  401cfc:	8b204318 	add	x24, x24, w0, uxtw
  401d00:	11000760 	add	w0, w27, #0x1
  401d04:	f9004fa0 	str	x0, [x29, #152]
  401d08:	17ffff84 	b	401b18 <_nl_find_msg+0x188>
  401d0c:	f00002a0 	adrp	x0, 458000 <free_modules_db+0x40>
  401d10:	9127e000 	add	x0, x0, #0x9f8
  401d14:	940010ff 	bl	406110 <getenv>
  401d18:	aa0003fa 	mov	x26, x0
  401d1c:	b4000060 	cbz	x0, 401d28 <_nl_find_msg+0x398>
  401d20:	39400001 	ldrb	w1, [x0]
  401d24:	35001b81 	cbnz	w1, 402094 <_nl_find_msg+0x704>
  401d28:	9125e380 	add	x0, x28, #0x978
  401d2c:	f9401019 	ldr	x25, [x0, #32]
  401d30:	9125e39c 	add	x28, x28, #0x978
  401d34:	52800020 	mov	w0, #0x1                   	// #1
  401d38:	b9001b80 	str	w0, [x28, #24]
  401d3c:	b5fff879 	cbnz	x25, 401c48 <_nl_find_msg+0x2b8>
  401d40:	17ffffe8 	b	401ce0 <_nl_find_msg+0x350>
  401d44:	f000049c 	adrp	x28, 494000 <_IO_helper_jumps+0x80>
  401d48:	9125e393 	add	x19, x28, #0x978
  401d4c:	9100a273 	add	x19, x19, #0x28
  401d50:	52800021 	mov	w1, #0x1                   	// #1
  401d54:	aa1303e2 	mov	x2, x19
  401d58:	9401427a 	bl	452740 <__aarch64_cas4_acq>
  401d5c:	35001fa0 	cbnz	w0, 402150 <_nl_find_msg+0x7c0>
  401d60:	9125e399 	add	x25, x28, #0x978
  401d64:	910283a0 	add	x0, x29, #0xa0
  401d68:	f90047a0 	str	x0, [x29, #136]
  401d6c:	9102c3b7 	add	x23, x29, #0xb0
  401d70:	9102a3b5 	add	x21, x29, #0xa8
  401d74:	52800013 	mov	w19, #0x0                   	// #0
  401d78:	f9401b20 	ldr	x0, [x25, #48]
  401d7c:	d281fe1b 	mov	x27, #0xff0                 	// #4080
  401d80:	f9401f21 	ldr	x1, [x25, #56]
  401d84:	91002000 	add	x0, x0, #0x8
  401d88:	f90053b8 	str	x24, [x29, #160]
  401d8c:	f90057a0 	str	x0, [x29, #168]
  401d90:	f1001c3f 	cmp	x1, #0x7
  401d94:	54000209 	b.ls	401dd4 <_nl_find_msg+0x444>  // b.plast
  401d98:	d1002024 	sub	x4, x1, #0x8
  401d9c:	aa1703e5 	mov	x5, x23
  401da0:	a9498ba1 	ldp	x1, x2, [x29, #152]
  401da4:	aa1503e3 	mov	x3, x21
  401da8:	f9400740 	ldr	x0, [x26, #8]
  401dac:	f94057a9 	ldr	x9, [x29, #168]
  401db0:	8b010042 	add	x2, x2, x1
  401db4:	f94047a1 	ldr	x1, [x29, #136]
  401db8:	8b040124 	add	x4, x9, x4
  401dbc:	94007841 	bl	41fec0 <__gconv>
  401dc0:	721d781f 	tst	w0, #0xfffffffb
  401dc4:	54001920 	b.eq	4020e8 <_nl_find_msg+0x758>  // b.none
  401dc8:	7100141f 	cmp	w0, #0x5
  401dcc:	540017c1 	b.ne	4020c4 <_nl_find_msg+0x734>  // b.any
  401dd0:	f90053b8 	str	x24, [x29, #160]
  401dd4:	340002b3 	cbz	w19, 401e28 <_nl_find_msg+0x498>
  401dd8:	11000673 	add	w19, w19, #0x1
  401ddc:	f9400b22 	ldr	x2, [x25, #16]
  401de0:	53185e61 	lsl	w1, w19, #8
  401de4:	4b130021 	sub	w1, w1, w19
  401de8:	f9004ba2 	str	x2, [x29, #144]
  401dec:	aa0203e0 	mov	x0, x2
  401df0:	531c6c21 	lsl	w1, w1, #4
  401df4:	93407c34 	sxtw	x20, w1
  401df8:	f9001f34 	str	x20, [x25, #56]
  401dfc:	aa1403e1 	mov	x1, x20
  401e00:	94004c65 	bl	414f94 <__libc_realloc>
  401e04:	f9404ba2 	ldr	x2, [x29, #144]
  401e08:	b4000540 	cbz	x0, 401eb0 <_nl_find_msg+0x520>
  401e0c:	d1002281 	sub	x1, x20, #0x8
  401e10:	91002002 	add	x2, x0, #0x8
  401e14:	91004003 	add	x3, x0, #0x10
  401e18:	f9000b20 	str	x0, [x25, #16]
  401e1c:	a9030722 	stp	x2, x1, [x25, #48]
  401e20:	f90057a3 	str	x3, [x29, #168]
  401e24:	17ffffdb 	b	401d90 <_nl_find_msg+0x400>
  401e28:	d281fe00 	mov	x0, #0xff0                 	// #4080
  401e2c:	f9001f3b 	str	x27, [x25, #56]
  401e30:	94004a68 	bl	4147d0 <__libc_malloc>
  401e34:	b4000460 	cbz	x0, 401ec0 <_nl_find_msg+0x530>
  401e38:	f9400b22 	ldr	x2, [x25, #16]
  401e3c:	d281fd01 	mov	x1, #0xfe8                 	// #4072
  401e40:	52800033 	mov	w19, #0x1                   	// #1
  401e44:	f9000002 	str	x2, [x0]
  401e48:	17fffff2 	b	401e10 <_nl_find_msg+0x480>
  401e4c:	f94033b4 	ldr	x20, [x29, #96]
  401e50:	aa1403e0 	mov	x0, x20
  401e54:	940037df 	bl	40fdd0 <___pthread_rwlock_unlock>
  401e58:	aa1403e0 	mov	x0, x20
  401e5c:	94003869 	bl	410000 <___pthread_rwlock_wrlock>
  401e60:	a9470ae1 	ldp	x1, x2, [x23, #112]
  401e64:	8b020440 	add	x0, x2, x2, lsl #1
  401e68:	aa0103f5 	mov	x21, x1
  401e6c:	d37df000 	lsl	x0, x0, #3
  401e70:	d1006003 	sub	x3, x0, #0x18
  401e74:	aa0003f4 	mov	x20, x0
  401e78:	8b030023 	add	x3, x1, x3
  401e7c:	d503201f 	nop
  401e80:	b4000382 	cbz	x2, 401ef0 <_nl_find_msg+0x560>
  401e84:	aa0303fa 	mov	x26, x3
  401e88:	d1000442 	sub	x2, x2, #0x1
  401e8c:	f85e8460 	ldr	x0, [x3], #-24
  401e90:	aa1903e1 	mov	x1, x25
  401e94:	f9003fa2 	str	x2, [x29, #120]
  401e98:	f9004ba3 	str	x3, [x29, #144]
  401e9c:	94005139 	bl	416380 <strcmp>
  401ea0:	f9403fa2 	ldr	x2, [x29, #120]
  401ea4:	f9404ba3 	ldr	x3, [x29, #144]
  401ea8:	35fffec0 	cbnz	w0, 401e80 <_nl_find_msg+0x4f0>
  401eac:	17ffff78 	b	401c8c <_nl_find_msg+0x2fc>
  401eb0:	f9400041 	ldr	x1, [x2]
  401eb4:	aa0203e0 	mov	x0, x2
  401eb8:	f9000b21 	str	x1, [x25, #16]
  401ebc:	94004ba5 	bl	414d50 <__free>
  401ec0:	9125e39c 	add	x28, x28, #0x978
  401ec4:	52800000 	mov	w0, #0x0                   	// #0
  401ec8:	9100a393 	add	x19, x28, #0x28
  401ecc:	92800018 	mov	x24, #0xffffffffffffffff    	// #-1
  401ed0:	aa1303e1 	mov	x1, x19
  401ed4:	a9037f9f 	stp	xzr, xzr, [x28, #48]
  401ed8:	940142ae 	bl	452990 <__aarch64_swp4_rel>
  401edc:	7100041f 	cmp	w0, #0x1
  401ee0:	54ffe5cd 	b.le	401b98 <_nl_find_msg+0x208>
  401ee4:	aa1303e0 	mov	x0, x19
  401ee8:	9400363f 	bl	40f7e4 <__lll_lock_wake_private>
  401eec:	17ffff2b 	b	401b98 <_nl_find_msg+0x208>
  401ef0:	91006280 	add	x0, x20, #0x18
  401ef4:	b4001295 	cbz	x21, 402144 <_nl_find_msg+0x7b4>
  401ef8:	aa0003e1 	mov	x1, x0
  401efc:	aa1503e0 	mov	x0, x21
  401f00:	94004c25 	bl	414f94 <__libc_realloc>
  401f04:	aa0003e1 	mov	x1, x0
  401f08:	b40013c1 	cbz	x1, 402180 <_nl_find_msg+0x7f0>
  401f0c:	f9003ae1 	str	x1, [x23, #112]
  401f10:	aa1903e0 	mov	x0, x25
  401f14:	f9004ba1 	str	x1, [x29, #144]
  401f18:	9400520a 	bl	416740 <__strdup>
  401f1c:	aa0003f9 	mov	x25, x0
  401f20:	b4001300 	cbz	x0, 402180 <_nl_find_msg+0x7f0>
  401f24:	f9404ba1 	ldr	x1, [x29, #144]
  401f28:	92800003 	mov	x3, #0xffffffffffffffff    	// #-1
  401f2c:	b0000342 	adrp	x2, 46a000 <translit_from_idx+0x13d0>
  401f30:	9102a3a4 	add	x4, x29, #0xa8
  401f34:	8b14003a 	add	x26, x1, x20
  401f38:	911c4042 	add	x2, x2, #0x710
  401f3c:	f8346820 	str	x0, [x1, x20]
  401f40:	f94037a1 	ldr	x1, [x29, #104]
  401f44:	f9000743 	str	x3, [x26, #8]
  401f48:	f94047a0 	ldr	x0, [x29, #136]
  401f4c:	52800003 	mov	w3, #0x0                   	// #0
  401f50:	97fffe90 	bl	401990 <_nl_find_msg>
  401f54:	b100041f 	cmn	x0, #0x1
  401f58:	54001220 	b.eq	40219c <_nl_find_msg+0x80c>  // b.none
  401f5c:	b4000620 	cbz	x0, 402020 <_nl_find_msg+0x690>
  401f60:	f00002a1 	adrp	x1, 458000 <free_modules_db+0x40>
  401f64:	91282021 	add	x1, x1, #0xa08
  401f68:	940053ae 	bl	416e20 <strstr>
  401f6c:	b40005a0 	cbz	x0, 402020 <_nl_find_msg+0x690>
  401f70:	91002015 	add	x21, x0, #0x8
  401f74:	f00002a1 	adrp	x1, 458000 <free_modules_db+0x40>
  401f78:	aa1503e0 	mov	x0, x21
  401f7c:	91286021 	add	x1, x1, #0xa18
  401f80:	94005198 	bl	4165e0 <strcspn>
  401f84:	aa0003f4 	mov	x20, x0
  401f88:	91004000 	add	x0, x0, #0x10
  401f8c:	9270bc01 	and	x1, x0, #0xffffffffffff0000
  401f90:	927cec00 	and	x0, x0, #0xfffffffffffffff0
  401f94:	cb2163e1 	sub	x1, sp, x1
  401f98:	eb2163ff 	cmp	sp, x1
  401f9c:	540000a0 	b.eq	401fb0 <_nl_find_msg+0x620>  // b.none
  401fa0:	d14043ff 	sub	sp, sp, #0x10, lsl #12
  401fa4:	f90203ff 	str	xzr, [sp, #1024]
  401fa8:	eb2163ff 	cmp	sp, x1
  401fac:	54ffffa1 	b.ne	401fa0 <_nl_find_msg+0x610>  // b.any
  401fb0:	92403c00 	and	x0, x0, #0xffff
  401fb4:	cb2063ff 	sub	sp, sp, x0
  401fb8:	f90003ff 	str	xzr, [sp]
  401fbc:	f110001f 	cmp	x0, #0x400
  401fc0:	54000043 	b.cc	401fc8 <_nl_find_msg+0x638>  // b.lo, b.ul, b.last
  401fc4:	f90203ff 	str	xzr, [sp, #1024]
  401fc8:	910043e3 	add	x3, sp, #0x10
  401fcc:	aa1503e1 	mov	x1, x21
  401fd0:	aa1403e2 	mov	x2, x20
  401fd4:	aa0303e0 	mov	x0, x3
  401fd8:	9102c3b5 	add	x21, x29, #0xb0
  401fdc:	97fff8b5 	bl	4002b0 <.plt+0x10>
  401fe0:	aa0003e3 	mov	x3, x0
  401fe4:	aa0003e1 	mov	x1, x0
  401fe8:	aa1903e2 	mov	x2, x25
  401fec:	aa1503e0 	mov	x0, x21
  401ff0:	3834687f 	strb	wzr, [x3, x20]
  401ff4:	94009cef 	bl	4293b0 <__gconv_create_spec>
  401ff8:	52800023 	mov	w3, #0x1                   	// #1
  401ffc:	91002341 	add	x1, x26, #0x8
  402000:	52800022 	mov	w2, #0x1                   	// #1
  402004:	aa1503e0 	mov	x0, x21
  402008:	390303a3 	strb	w3, [x29, #192]
  40200c:	940076c1 	bl	41fb10 <__gconv_open>
  402010:	2a0003f4 	mov	w20, w0
  402014:	aa1503e0 	mov	x0, x21
  402018:	94009d9b 	bl	429684 <__gconv_destroy_spec>
  40201c:	35000cb4 	cbnz	w20, 4021b0 <_nl_find_msg+0x820>
  402020:	f9403ee0 	ldr	x0, [x23, #120]
  402024:	f9000b5f 	str	xzr, [x26, #16]
  402028:	91000400 	add	x0, x0, #0x1
  40202c:	f9003ee0 	str	x0, [x23, #120]
  402030:	17ffff17 	b	401c8c <_nl_find_msg+0x2fc>
  402034:	d000049c 	adrp	x28, 494000 <_IO_helper_jumps+0x80>
  402038:	9125e395 	add	x21, x28, #0x978
  40203c:	9100a2b5 	add	x21, x21, #0x28
  402040:	52800021 	mov	w1, #0x1                   	// #1
  402044:	aa1503e2 	mov	x2, x21
  402048:	940141be 	bl	452740 <__aarch64_cas4_acq>
  40204c:	35000a20 	cbnz	w0, 402190 <_nl_find_msg+0x800>
  402050:	f9400b40 	ldr	x0, [x26, #16]
  402054:	b4000840 	cbz	x0, 40215c <_nl_find_msg+0x7cc>
  402058:	9125e393 	add	x19, x28, #0x978
  40205c:	52800000 	mov	w0, #0x0                   	// #0
  402060:	9100a273 	add	x19, x19, #0x28
  402064:	aa1303e1 	mov	x1, x19
  402068:	9401424a 	bl	452990 <__aarch64_swp4_rel>
  40206c:	7100041f 	cmp	w0, #0x1
  402070:	5400006c 	b.gt	40207c <_nl_find_msg+0x6ec>
  402074:	f9400b40 	ldr	x0, [x26, #16]
  402078:	17ffff0c 	b	401ca8 <_nl_find_msg+0x318>
  40207c:	aa1303e0 	mov	x0, x19
  402080:	940035d9 	bl	40f7e4 <__lll_lock_wake_private>
  402084:	f9400b40 	ldr	x0, [x26, #16]
  402088:	17ffff08 	b	401ca8 <_nl_find_msg+0x318>
  40208c:	aa0003f8 	mov	x24, x0
  402090:	17fffec2 	b	401b98 <_nl_find_msg+0x208>
  402094:	97fff89b 	bl	400300 <.plt+0x60>
  402098:	9100041b 	add	x27, x0, #0x1
  40209c:	aa1b03e0 	mov	x0, x27
  4020a0:	940049cc 	bl	4147d0 <__libc_malloc>
  4020a4:	aa0003f9 	mov	x25, x0
  4020a8:	b4000080 	cbz	x0, 4020b8 <_nl_find_msg+0x728>
  4020ac:	aa1b03e2 	mov	x2, x27
  4020b0:	aa1a03e1 	mov	x1, x26
  4020b4:	97fff87f 	bl	4002b0 <.plt+0x10>
  4020b8:	9125e380 	add	x0, x28, #0x978
  4020bc:	f9001019 	str	x25, [x0, #32]
  4020c0:	17ffff1c 	b	401d30 <_nl_find_msg+0x3a0>
  4020c4:	9125e393 	add	x19, x28, #0x978
  4020c8:	52800000 	mov	w0, #0x0                   	// #0
  4020cc:	9100a273 	add	x19, x19, #0x28
  4020d0:	d2800018 	mov	x24, #0x0                   	// #0
  4020d4:	aa1303e1 	mov	x1, x19
  4020d8:	9401422e 	bl	452990 <__aarch64_swp4_rel>
  4020dc:	7100041f 	cmp	w0, #0x1
  4020e0:	54ffd5cd 	b.le	401b98 <_nl_find_msg+0x208>
  4020e4:	17ffff80 	b	401ee4 <_nl_find_msg+0x554>
  4020e8:	9125e39c 	add	x28, x28, #0x978
  4020ec:	d37df2d3 	lsl	x19, x22, #3
  4020f0:	f94057a3 	ldr	x3, [x29, #168]
  4020f4:	9100a395 	add	x21, x28, #0x28
  4020f8:	a9430b84 	ldp	x4, x2, [x28, #48]
  4020fc:	aa1503e1 	mov	x1, x21
  402100:	f9400b47 	ldr	x7, [x26, #16]
  402104:	52800000 	mov	w0, #0x0                   	// #0
  402108:	cb040065 	sub	x5, x3, x4
  40210c:	cb050042 	sub	x2, x2, x5
  402110:	d10020a8 	sub	x8, x5, #0x8
  402114:	f9000088 	str	x8, [x4]
  402118:	f83678e4 	str	x4, [x7, x22, lsl #3]
  40211c:	92400844 	and	x4, x2, #0x7
  402120:	8b040063 	add	x3, x3, x4
  402124:	927df042 	and	x2, x2, #0xfffffffffffffff8
  402128:	a9030b83 	stp	x3, x2, [x28, #48]
  40212c:	94014219 	bl	452990 <__aarch64_swp4_rel>
  402130:	7100041f 	cmp	w0, #0x1
  402134:	5400038c 	b.gt	4021a4 <_nl_find_msg+0x814>
  402138:	f9400b40 	ldr	x0, [x26, #16]
  40213c:	f8736800 	ldr	x0, [x0, x19]
  402140:	17fffede 	b	401cb8 <_nl_find_msg+0x328>
  402144:	940049a3 	bl	4147d0 <__libc_malloc>
  402148:	aa0003e1 	mov	x1, x0
  40214c:	17ffff6f 	b	401f08 <_nl_find_msg+0x578>
  402150:	aa1303e0 	mov	x0, x19
  402154:	94003563 	bl	40f6e0 <__lll_lock_wait_private>
  402158:	17ffff02 	b	401d60 <_nl_find_msg+0x3d0>
  40215c:	b94042e0 	ldr	w0, [x23, #64]
  402160:	d2800101 	mov	x1, #0x8                   	// #8
  402164:	0b000260 	add	w0, w19, w0
  402168:	94004d1a 	bl	4155d0 <__calloc>
  40216c:	f9000b40 	str	x0, [x26, #16]
  402170:	b5ffdf80 	cbnz	x0, 401d60 <_nl_find_msg+0x3d0>
  402174:	92800000 	mov	x0, #0xffffffffffffffff    	// #-1
  402178:	f9000b40 	str	x0, [x26, #16]
  40217c:	17ffffb7 	b	402058 <_nl_find_msg+0x6c8>
  402180:	f94033a0 	ldr	x0, [x29, #96]
  402184:	92800018 	mov	x24, #0xffffffffffffffff    	// #-1
  402188:	94003712 	bl	40fdd0 <___pthread_rwlock_unlock>
  40218c:	17fffe83 	b	401b98 <_nl_find_msg+0x208>
  402190:	aa1503e0 	mov	x0, x21
  402194:	94003553 	bl	40f6e0 <__lll_lock_wait_private>
  402198:	17ffffae 	b	402050 <_nl_find_msg+0x6c0>
  40219c:	aa0003f8 	mov	x24, x0
  4021a0:	17fffe7e 	b	401b98 <_nl_find_msg+0x208>
  4021a4:	aa1503e0 	mov	x0, x21
  4021a8:	9400358f 	bl	40f7e4 <__lll_lock_wake_private>
  4021ac:	17ffffe3 	b	402138 <_nl_find_msg+0x7a8>
  4021b0:	3100069f 	cmn	w20, #0x1
  4021b4:	54000100 	b.eq	4021d4 <_nl_find_msg+0x844>  // b.none
  4021b8:	f94033a0 	ldr	x0, [x29, #96]
  4021bc:	d2800018 	mov	x24, #0x0                   	// #0
  4021c0:	94003704 	bl	40fdd0 <___pthread_rwlock_unlock>
  4021c4:	aa1903e0 	mov	x0, x25
  4021c8:	94004ae2 	bl	414d50 <__free>
  4021cc:	17fffe73 	b	401b98 <_nl_find_msg+0x208>
  4021d0:	94006c58 	bl	41d330 <__stack_chk_fail>
  4021d4:	92800000 	mov	x0, #0xffffffffffffffff    	// #-1
  4021d8:	f9000740 	str	x0, [x26, #8]
  4021dc:	17ffff91 	b	402020 <_nl_find_msg+0x690>

00000000004021e0 <__dcigettext>:
  4021e0:	a9ab7bfd 	stp	x29, x30, [sp, #-336]!
  4021e4:	910003fd 	mov	x29, sp
  4021e8:	a9025bf5 	stp	x21, x22, [sp, #32]
  4021ec:	f0000476 	adrp	x22, 491000 <tunable_list+0x528>
  4021f0:	f945fac6 	ldr	x6, [x22, #3056]
  4021f4:	a90153f3 	stp	x19, x20, [sp, #16]
  4021f8:	a90363f7 	stp	x23, x24, [sp, #48]
  4021fc:	a9046bf9 	stp	x25, x26, [sp, #64]
  402200:	a90573fb 	stp	x27, x28, [sp, #80]
  402204:	d10043ff 	sub	sp, sp, #0x10
  402208:	f94000c7 	ldr	x7, [x6]
  40220c:	f900a7a7 	str	x7, [x29, #328]
  402210:	d2800007 	mov	x7, #0x0                   	// #0
  402214:	f90053a2 	str	x2, [x29, #160]
  402218:	f90073a4 	str	x4, [x29, #224]
  40221c:	b900eba3 	str	w3, [x29, #232]
  402220:	f9007fbf 	str	xzr, [x29, #248]
  402224:	b40026a1 	cbz	x1, 4026f8 <__dcigettext+0x518>
  402228:	710030bf 	cmp	w5, #0xc
  40222c:	aa0103f5 	mov	x21, x1
  402230:	2a0503f7 	mov	w23, w5
  402234:	7a4698a4 	ccmp	w5, #0x6, #0x4, ls  // ls = plast
  402238:	54000281 	b.ne	402288 <__dcigettext+0xa8>  // b.any
  40223c:	7100007f 	cmp	w3, #0x0
  402240:	fa411884 	ccmp	x4, #0x1, #0x4, ne  // ne = any
  402244:	54002161 	b.ne	402670 <__dcigettext+0x490>  // b.any
  402248:	aa1503e3 	mov	x3, x21
  40224c:	f945fad6 	ldr	x22, [x22, #3056]
  402250:	f940a7a0 	ldr	x0, [x29, #328]
  402254:	f94002c1 	ldr	x1, [x22]
  402258:	eb010000 	subs	x0, x0, x1
  40225c:	d2800001 	mov	x1, #0x0                   	// #0
  402260:	540038c1 	b.ne	402978 <__dcigettext+0x798>  // b.any
  402264:	910003bf 	mov	sp, x29
  402268:	aa0303e0 	mov	x0, x3
  40226c:	a94153f3 	ldp	x19, x20, [sp, #16]
  402270:	a9425bf5 	ldp	x21, x22, [sp, #32]
  402274:	a94363f7 	ldp	x23, x24, [sp, #48]
  402278:	a9446bf9 	ldp	x25, x26, [sp, #64]
  40227c:	a94573fb 	ldp	x27, x28, [sp, #80]
  402280:	a8d57bfd 	ldp	x29, x30, [sp], #336
  402284:	d65f03c0 	ret
  402288:	f0000461 	adrp	x1, 491000 <tunable_list+0x528>
  40228c:	f946f021 	ldr	x1, [x1, #3552]
  402290:	d53bd042 	mrs	x2, tpidr_el0
  402294:	aa0003f4 	mov	x20, x0
  402298:	f00004a0 	adrp	x0, 499000 <_r_debug_extended+0x20>
  40229c:	a90b03a1 	stp	x1, x0, [x29, #176]
  4022a0:	d0000483 	adrp	x3, 494000 <_IO_helper_jumps+0x80>
  4022a4:	f0fffff9 	adrp	x25, 401000 <__libc_start_main+0x180>
  4022a8:	b8616841 	ldr	w1, [x2, x1]
  4022ac:	9125e073 	add	x19, x3, #0x978
  4022b0:	91070000 	add	x0, x0, #0x1c0
  4022b4:	f90047b9 	str	x25, [x29, #136]
  4022b8:	f90063a2 	str	x2, [x29, #192]
  4022bc:	9101e278 	add	x24, x19, #0x78
  4022c0:	b900cfa1 	str	w1, [x29, #204]
  4022c4:	f9006ba3 	str	x3, [x29, #208]
  4022c8:	94003616 	bl	40fb20 <___pthread_rwlock_rdlock>
  4022cc:	91010260 	add	x0, x19, #0x40
  4022d0:	94003614 	bl	40fb20 <___pthread_rwlock_rdlock>
  4022d4:	90000481 	adrp	x1, 492000 <.got.plt+0x18>
  4022d8:	f100029f 	cmp	x20, #0x0
  4022dc:	2a1703e0 	mov	w0, w23
  4022e0:	b90113b7 	str	w23, [x29, #272]
  4022e4:	f9402421 	ldr	x1, [x1, #72]
  4022e8:	f90097bf 	str	xzr, [x29, #296]
  4022ec:	f900a3b5 	str	x21, [x29, #320]
  4022f0:	9a940034 	csel	x20, x1, x20, eq  // eq = none
  4022f4:	f90087b4 	str	x20, [x29, #264]
  4022f8:	9400a3ee 	bl	42b2b0 <__current_locale_name>
  4022fc:	aa0003e1 	mov	x1, x0
  402300:	aa1803e0 	mov	x0, x24
  402304:	f9004ba1 	str	x1, [x29, #144]
  402308:	f9008fa1 	str	x1, [x29, #280]
  40230c:	94003605 	bl	40fb20 <___pthread_rwlock_rdlock>
  402310:	91002261 	add	x1, x19, #0x8
  402314:	91244322 	add	x2, x25, #0x910
  402318:	910423a0 	add	x0, x29, #0x108
  40231c:	94006701 	bl	41bf20 <__tfind>
  402320:	aa0003e1 	mov	x1, x0
  402324:	aa1803e0 	mov	x0, x24
  402328:	aa0103f3 	mov	x19, x1
  40232c:	f9004fa1 	str	x1, [x29, #152]
  402330:	940036a8 	bl	40fdd0 <___pthread_rwlock_unlock>
  402334:	b40000f3 	cbz	x19, 402350 <__dcigettext+0x170>
  402338:	f94652c0 	ldr	x0, [x22, #3232]
  40233c:	f9400262 	ldr	x2, [x19]
  402340:	b9400000 	ldr	w0, [x0]
  402344:	b9401841 	ldr	w1, [x2, #24]
  402348:	6b00003f 	cmp	w1, w0
  40234c:	54001da0 	b.eq	402700 <__dcigettext+0x520>  // b.none
  402350:	f9406ba0 	ldr	x0, [x29, #208]
  402354:	f944bc13 	ldr	x19, [x0, #2424]
  402358:	b50000b3 	cbnz	x19, 40236c <__dcigettext+0x18c>
  40235c:	140000e0 	b	4026dc <__dcigettext+0x4fc>
  402360:	54001c4b 	b.lt	4026e8 <__dcigettext+0x508>  // b.tstop
  402364:	f9400273 	ldr	x19, [x19]
  402368:	b4001bb3 	cbz	x19, 4026dc <__dcigettext+0x4fc>
  40236c:	91006261 	add	x1, x19, #0x18
  402370:	aa1403e0 	mov	x0, x20
  402374:	94005003 	bl	416380 <strcmp>
  402378:	7100001f 	cmp	w0, #0x0
  40237c:	35ffff20 	cbnz	w0, 402360 <__dcigettext+0x180>
  402380:	f9400678 	ldr	x24, [x19, #8]
  402384:	39400300 	ldrb	w0, [x24]
  402388:	7100bc1f 	cmp	w0, #0x2f
  40238c:	54001761 	b.ne	402678 <__dcigettext+0x498>  // b.any
  402390:	d00002c2 	adrp	x2, 45c000 <__PRETTY_FUNCTION__.20+0x70>
  402394:	9105a042 	add	x2, x2, #0x168
  402398:	d00002c1 	adrp	x1, 45c000 <__PRETTY_FUNCTION__.20+0x70>
  40239c:	91036021 	add	x1, x1, #0xd8
  4023a0:	2a1703e0 	mov	w0, w23
  4023a4:	3877c85a 	ldrb	w26, [x2, w23, sxtw]
  4023a8:	8b01035a 	add	x26, x26, x1
  4023ac:	9400a3c1 	bl	42b2b0 <__current_locale_name>
  4023b0:	aa0003f9 	mov	x25, x0
  4023b4:	39400000 	ldrb	w0, [x0]
  4023b8:	71010c1f 	cmp	w0, #0x43
  4023bc:	54001801 	b.ne	4026bc <__dcigettext+0x4dc>  // b.any
  4023c0:	39400720 	ldrb	w0, [x25, #1]
  4023c4:	350017c0 	cbnz	w0, 4026bc <__dcigettext+0x4dc>
  4023c8:	aa1403e0 	mov	x0, x20
  4023cc:	97fff7cd 	bl	400300 <.plt+0x60>
  4023d0:	aa0003e1 	mov	x1, x0
  4023d4:	aa1a03e0 	mov	x0, x26
  4023d8:	aa0103fb 	mov	x27, x1
  4023dc:	f90043a1 	str	x1, [x29, #128]
  4023e0:	97fff7c8 	bl	400300 <.plt+0x60>
  4023e4:	8b1b0000 	add	x0, x0, x27
  4023e8:	91005000 	add	x0, x0, #0x14
  4023ec:	9100eb62 	add	x2, x27, #0x3a
  4023f0:	9270bc01 	and	x1, x0, #0xffffffffffff0000
  4023f4:	f9003fa2 	str	x2, [x29, #120]
  4023f8:	cb2163e1 	sub	x1, sp, x1
  4023fc:	927cec00 	and	x0, x0, #0xfffffffffffffff0
  402400:	eb2163ff 	cmp	sp, x1
  402404:	540000a0 	b.eq	402418 <__dcigettext+0x238>  // b.none
  402408:	d14043ff 	sub	sp, sp, #0x10, lsl #12
  40240c:	f90203ff 	str	xzr, [sp, #1024]
  402410:	eb2163ff 	cmp	sp, x1
  402414:	54ffffa1 	b.ne	402408 <__dcigettext+0x228>  // b.any
  402418:	92403c00 	and	x0, x0, #0xffff
  40241c:	cb2063ff 	sub	sp, sp, x0
  402420:	f90003ff 	str	xzr, [sp]
  402424:	f110001f 	cmp	x0, #0x400
  402428:	540018e2 	b.cs	402744 <__dcigettext+0x564>  // b.hs, b.nlast
  40242c:	aa1a03e1 	mov	x1, x26
  402430:	910043e0 	add	x0, sp, #0x10
  402434:	f9006fa0 	str	x0, [x29, #216]
  402438:	94005452 	bl	417580 <__stpcpy>
  40243c:	f94043ba 	ldr	x26, [x29, #128]
  402440:	528005e3 	mov	w3, #0x2f                  	// #47
  402444:	38001403 	strb	w3, [x0], #1
  402448:	aa1403e1 	mov	x1, x20
  40244c:	aa1a03e2 	mov	x2, x26
  402450:	97fff798 	bl	4002b0 <.plt+0x10>
  402454:	aa0003e1 	mov	x1, x0
  402458:	528da5c2 	mov	w2, #0x6d2e                	// #27950
  40245c:	aa1903e0 	mov	x0, x25
  402460:	72a00de2 	movk	w2, #0x6f, lsl #16
  402464:	b83a6822 	str	w2, [x1, x26]
  402468:	97fff7a6 	bl	400300 <.plt+0x60>
  40246c:	91004000 	add	x0, x0, #0x10
  402470:	9270bc01 	and	x1, x0, #0xffffffffffff0000
  402474:	927cec00 	and	x0, x0, #0xfffffffffffffff0
  402478:	cb2163e1 	sub	x1, sp, x1
  40247c:	eb2163ff 	cmp	sp, x1
  402480:	540000a0 	b.eq	402494 <__dcigettext+0x2b4>  // b.none
  402484:	d14043ff 	sub	sp, sp, #0x10, lsl #12
  402488:	f90203ff 	str	xzr, [sp, #1024]
  40248c:	eb2163ff 	cmp	sp, x1
  402490:	54ffffa1 	b.ne	402484 <__dcigettext+0x2a4>  // b.any
  402494:	92403c00 	and	x0, x0, #0xffff
  402498:	cb2063ff 	sub	sp, sp, x0
  40249c:	f90003ff 	str	xzr, [sp]
  4024a0:	f110001f 	cmp	x0, #0x400
  4024a4:	54000043 	b.cc	4024ac <__dcigettext+0x2cc>  // b.lo, b.ul, b.last
  4024a8:	f90203ff 	str	xzr, [sp, #1024]
  4024ac:	910043fb 	add	x27, sp, #0x10
  4024b0:	910403a0 	add	x0, x29, #0x100
  4024b4:	f90057a0 	str	x0, [x29, #168]
  4024b8:	aa1b03e0 	mov	x0, x27
  4024bc:	d00002ba 	adrp	x26, 458000 <free_modules_db+0x40>
  4024c0:	aa1903fb 	mov	x27, x25
  4024c4:	9128e35a 	add	x26, x26, #0xa38
  4024c8:	aa0003f9 	mov	x25, x0
  4024cc:	d503201f 	nop
  4024d0:	39400360 	ldrb	w0, [x27]
  4024d4:	7100e81f 	cmp	w0, #0x3a
  4024d8:	540016c0 	b.eq	4027b0 <__dcigettext+0x5d0>  // b.none
  4024dc:	350016e0 	cbnz	w0, 4027b8 <__dcigettext+0x5d8>
  4024e0:	52800860 	mov	w0, #0x43                  	// #67
  4024e4:	79000320 	strh	w0, [x25]
  4024e8:	39400320 	ldrb	w0, [x25]
  4024ec:	71010c1f 	cmp	w0, #0x43
  4024f0:	54000061 	b.ne	4024fc <__dcigettext+0x31c>  // b.any
  4024f4:	39400720 	ldrb	w0, [x25, #1]
  4024f8:	34000980 	cbz	w0, 402628 <__dcigettext+0x448>
  4024fc:	aa1a03e1 	mov	x1, x26
  402500:	aa1903e0 	mov	x0, x25
  402504:	94004f9f 	bl	416380 <strcmp>
  402508:	34000900 	cbz	w0, 402628 <__dcigettext+0x448>
  40250c:	f9406fa2 	ldr	x2, [x29, #216]
  402510:	aa1303e3 	mov	x3, x19
  402514:	aa1903e1 	mov	x1, x25
  402518:	aa1803e0 	mov	x0, x24
  40251c:	9400011d 	bl	402990 <_nl_find_domain>
  402520:	aa0003fc 	mov	x28, x0
  402524:	b4fffd60 	cbz	x0, 4024d0 <__dcigettext+0x2f0>
  402528:	f94057a4 	ldr	x4, [x29, #168]
  40252c:	52800023 	mov	w3, #0x1                   	// #1
  402530:	aa1503e2 	mov	x2, x21
  402534:	aa1303e1 	mov	x1, x19
  402538:	97fffd16 	bl	401990 <_nl_find_msg>
  40253c:	aa0003e3 	mov	x3, x0
  402540:	b4000420 	cbz	x0, 4025c4 <__dcigettext+0x3e4>
  402544:	b100041f 	cmn	x0, #0x1
  402548:	54000700 	b.eq	402628 <__dcigettext+0x448>  // b.none
  40254c:	f9407fa0 	ldr	x0, [x29, #248]
  402550:	f9006fa3 	str	x3, [x29, #216]
  402554:	940049ff 	bl	414d50 <__free>
  402558:	f9404fa0 	ldr	x0, [x29, #152]
  40255c:	f9406fa3 	ldr	x3, [x29, #216]
  402560:	b4001940 	cbz	x0, 402888 <__dcigettext+0x6a8>
  402564:	f9404fa0 	ldr	x0, [x29, #152]
  402568:	f94652c1 	ldr	x1, [x22, #3232]
  40256c:	f9400000 	ldr	x0, [x0]
  402570:	b9400021 	ldr	w1, [x1]
  402574:	f94083a2 	ldr	x2, [x29, #256]
  402578:	b9001801 	str	w1, [x0, #24]
  40257c:	a9020c1c 	stp	x28, x3, [x0, #32]
  402580:	f9001802 	str	x2, [x0, #48]
  402584:	f9405ba1 	ldr	x1, [x29, #176]
  402588:	f94063a0 	ldr	x0, [x29, #192]
  40258c:	b940cfa2 	ldr	w2, [x29, #204]
  402590:	b8216802 	str	w2, [x0, x1]
  402594:	b940eba0 	ldr	w0, [x29, #232]
  402598:	35001460 	cbnz	w0, 402824 <__dcigettext+0x644>
  40259c:	f9406ba0 	ldr	x0, [x29, #208]
  4025a0:	f90077a3 	str	x3, [x29, #232]
  4025a4:	9125e000 	add	x0, x0, #0x978
  4025a8:	91010000 	add	x0, x0, #0x40
  4025ac:	94003609 	bl	40fdd0 <___pthread_rwlock_unlock>
  4025b0:	f9405fa0 	ldr	x0, [x29, #184]
  4025b4:	91070000 	add	x0, x0, #0x1c0
  4025b8:	94003606 	bl	40fdd0 <___pthread_rwlock_unlock>
  4025bc:	f94077a3 	ldr	x3, [x29, #232]
  4025c0:	17ffff23 	b	40224c <__dcigettext+0x6c>
  4025c4:	f9401380 	ldr	x0, [x28, #32]
  4025c8:	b4fff840 	cbz	x0, 4024d0 <__dcigettext+0x2f0>
  4025cc:	91008381 	add	x1, x28, #0x20
  4025d0:	d2800008 	mov	x8, #0x0                   	// #0
  4025d4:	a90667ba 	stp	x26, x25, [x29, #96]
  4025d8:	aa1303f9 	mov	x25, x19
  4025dc:	aa1503fa 	mov	x26, x21
  4025e0:	aa0803f5 	mov	x21, x8
  4025e4:	f9003bb8 	str	x24, [x29, #112]
  4025e8:	aa0103f8 	mov	x24, x1
  4025ec:	f94057b3 	ldr	x19, [x29, #168]
  4025f0:	14000005 	b	402604 <__dcigettext+0x424>
  4025f4:	b5001020 	cbnz	x0, 4027f8 <__dcigettext+0x618>
  4025f8:	910006b5 	add	x21, x21, #0x1
  4025fc:	f8757b00 	ldr	x0, [x24, x21, lsl #3]
  402600:	b4001080 	cbz	x0, 402810 <__dcigettext+0x630>
  402604:	aa1303e4 	mov	x4, x19
  402608:	aa1a03e2 	mov	x2, x26
  40260c:	aa1903e1 	mov	x1, x25
  402610:	52800023 	mov	w3, #0x1                   	// #1
  402614:	97fffcdf 	bl	401990 <_nl_find_msg>
  402618:	b100041f 	cmn	x0, #0x1
  40261c:	54fffec1 	b.ne	4025f4 <__dcigettext+0x414>  // b.any
  402620:	aa1a03f5 	mov	x21, x26
  402624:	d503201f 	nop
  402628:	f9407fa0 	ldr	x0, [x29, #248]
  40262c:	940049c9 	bl	414d50 <__free>
  402630:	f9406ba0 	ldr	x0, [x29, #208]
  402634:	9125e000 	add	x0, x0, #0x978
  402638:	91010000 	add	x0, x0, #0x40
  40263c:	940035e5 	bl	40fdd0 <___pthread_rwlock_unlock>
  402640:	f9405fa0 	ldr	x0, [x29, #184]
  402644:	91070000 	add	x0, x0, #0x1c0
  402648:	940035e2 	bl	40fdd0 <___pthread_rwlock_unlock>
  40264c:	f9405ba1 	ldr	x1, [x29, #176]
  402650:	f94063a0 	ldr	x0, [x29, #192]
  402654:	b940cfa2 	ldr	w2, [x29, #204]
  402658:	b8216802 	str	w2, [x0, x1]
  40265c:	b940eba0 	ldr	w0, [x29, #232]
  402660:	7100001f 	cmp	w0, #0x0
  402664:	f94073a0 	ldr	x0, [x29, #224]
  402668:	fa411804 	ccmp	x0, #0x1, #0x4, ne  // ne = any
  40266c:	54ffdee0 	b.eq	402248 <__dcigettext+0x68>  // b.none
  402670:	f94053a3 	ldr	x3, [x29, #160]
  402674:	17fffef6 	b	40224c <__dcigettext+0x6c>
  402678:	d2800001 	mov	x1, #0x0                   	// #0
  40267c:	d2800000 	mov	x0, #0x0                   	// #0
  402680:	940061a0 	bl	41ad00 <__getcwd>
  402684:	aa0003f9 	mov	x25, x0
  402688:	b4fffd00 	cbz	x0, 402628 <__dcigettext+0x448>
  40268c:	aa1803e3 	mov	x3, x24
  402690:	aa0003e2 	mov	x2, x0
  402694:	d00002a1 	adrp	x1, 458000 <free_modules_db+0x40>
  402698:	91288021 	add	x1, x1, #0xa20
  40269c:	9103e3a0 	add	x0, x29, #0xf8
  4026a0:	940014a8 	bl	407940 <___asprintf>
  4026a4:	2a0003f8 	mov	w24, w0
  4026a8:	aa1903e0 	mov	x0, x25
  4026ac:	940049a9 	bl	414d50 <__free>
  4026b0:	37fffbd8 	tbnz	w24, #31, 402628 <__dcigettext+0x448>
  4026b4:	f9407fb8 	ldr	x24, [x29, #248]
  4026b8:	17ffff36 	b	402390 <__dcigettext+0x1b0>
  4026bc:	d00002a0 	adrp	x0, 458000 <free_modules_db+0x40>
  4026c0:	9128a000 	add	x0, x0, #0xa28
  4026c4:	94000e93 	bl	406110 <getenv>
  4026c8:	b4ffe800 	cbz	x0, 4023c8 <__dcigettext+0x1e8>
  4026cc:	39400001 	ldrb	w1, [x0]
  4026d0:	7100003f 	cmp	w1, #0x0
  4026d4:	9a800339 	csel	x25, x25, x0, eq  // eq = none
  4026d8:	17ffff3c 	b	4023c8 <__dcigettext+0x1e8>
  4026dc:	d00002b8 	adrp	x24, 458000 <free_modules_db+0x40>
  4026e0:	91290318 	add	x24, x24, #0xa40
  4026e4:	17ffff2b 	b	402390 <__dcigettext+0x1b0>
  4026e8:	d00002b8 	adrp	x24, 458000 <free_modules_db+0x40>
  4026ec:	d2800013 	mov	x19, #0x0                   	// #0
  4026f0:	91290318 	add	x24, x24, #0xa40
  4026f4:	17ffff27 	b	402390 <__dcigettext+0x1b0>
  4026f8:	d2800003 	mov	x3, #0x0                   	// #0
  4026fc:	17fffed4 	b	40224c <__dcigettext+0x6c>
  402700:	b940eba0 	ldr	w0, [x29, #232]
  402704:	f9401443 	ldr	x3, [x2, #40]
  402708:	35000220 	cbnz	w0, 40274c <__dcigettext+0x56c>
  40270c:	f9406ba0 	ldr	x0, [x29, #208]
  402710:	f90077a3 	str	x3, [x29, #232]
  402714:	9125e000 	add	x0, x0, #0x978
  402718:	91010000 	add	x0, x0, #0x40
  40271c:	940035ad 	bl	40fdd0 <___pthread_rwlock_unlock>
  402720:	f9405fa0 	ldr	x0, [x29, #184]
  402724:	91070000 	add	x0, x0, #0x1c0
  402728:	940035aa 	bl	40fdd0 <___pthread_rwlock_unlock>
  40272c:	f9405ba1 	ldr	x1, [x29, #176]
  402730:	f94063a0 	ldr	x0, [x29, #192]
  402734:	b940cfa2 	ldr	w2, [x29, #204]
  402738:	f94077a3 	ldr	x3, [x29, #232]
  40273c:	b8216802 	str	w2, [x0, x1]
  402740:	17fffec3 	b	40224c <__dcigettext+0x6c>
  402744:	f90203ff 	str	xzr, [sp, #1024]
  402748:	17ffff39 	b	40242c <__dcigettext+0x24c>
  40274c:	f9401040 	ldr	x0, [x2, #32]
  402750:	f90077a3 	str	x3, [x29, #232]
  402754:	f94073a1 	ldr	x1, [x29, #224]
  402758:	f9400814 	ldr	x20, [x0, #16]
  40275c:	f9401853 	ldr	x19, [x2, #48]
  402760:	f9405e80 	ldr	x0, [x20, #184]
  402764:	97fffbe3 	bl	4016f0 <plural_eval>
  402768:	f9406281 	ldr	x1, [x20, #192]
  40276c:	aa0003f4 	mov	x20, x0
  402770:	f94077a3 	ldr	x3, [x29, #232]
  402774:	eb01001f 	cmp	x0, x1
  402778:	54fffca2 	b.cs	40270c <__dcigettext+0x52c>  // b.hs, b.nlast
  40277c:	8b130073 	add	x19, x3, x19
  402780:	aa0303e0 	mov	x0, x3
  402784:	aa0303f5 	mov	x21, x3
  402788:	d1000694 	sub	x20, x20, #0x1
  40278c:	b100069f 	cmn	x20, #0x1
  402790:	54000f60 	b.eq	40297c <__dcigettext+0x79c>  // b.none
  402794:	52800001 	mov	w1, #0x0                   	// #0
  402798:	9400543a 	bl	417880 <__rawmemchr>
  40279c:	91000400 	add	x0, x0, #0x1
  4027a0:	eb13001f 	cmp	x0, x19
  4027a4:	54ffff23 	b.cc	402788 <__dcigettext+0x5a8>  // b.lo, b.ul, b.last
  4027a8:	aa1503e3 	mov	x3, x21
  4027ac:	17ffffd8 	b	40270c <__dcigettext+0x52c>
  4027b0:	9100077b 	add	x27, x27, #0x1
  4027b4:	17ffff47 	b	4024d0 <__dcigettext+0x2f0>
  4027b8:	aa1903e1 	mov	x1, x25
  4027bc:	d503201f 	nop
  4027c0:	38001420 	strb	w0, [x1], #1
  4027c4:	38401f60 	ldrb	w0, [x27, #1]!
  4027c8:	7100e81f 	cmp	w0, #0x3a
  4027cc:	7a401804 	ccmp	w0, #0x0, #0x4, ne  // ne = any
  4027d0:	54ffff81 	b.ne	4027c0 <__dcigettext+0x5e0>  // b.any
  4027d4:	f946a6c0 	ldr	x0, [x22, #3400]
  4027d8:	3900003f 	strb	wzr, [x1]
  4027dc:	b9400000 	ldr	w0, [x0]
  4027e0:	34ffe840 	cbz	w0, 4024e8 <__dcigettext+0x308>
  4027e4:	aa1903e0 	mov	x0, x25
  4027e8:	528005e1 	mov	w1, #0x2f                  	// #47
  4027ec:	94004eb5 	bl	4162c0 <strchr>
  4027f0:	b5ffe700 	cbnz	x0, 4024d0 <__dcigettext+0x2f0>
  4027f4:	17ffff3d 	b	4024e8 <__dcigettext+0x308>
  4027f8:	2a1503e1 	mov	w1, w21
  4027fc:	aa0003e3 	mov	x3, x0
  402800:	aa1a03f5 	mov	x21, x26
  402804:	8b21cf81 	add	x1, x28, w1, sxtw #3
  402808:	f940103c 	ldr	x28, [x1, #32]
  40280c:	17ffff50 	b	40254c <__dcigettext+0x36c>
  402810:	aa1903f3 	mov	x19, x25
  402814:	aa1a03f5 	mov	x21, x26
  402818:	a94667ba 	ldp	x26, x25, [x29, #96]
  40281c:	f9403bb8 	ldr	x24, [x29, #112]
  402820:	17ffff2c 	b	4024d0 <__dcigettext+0x2f0>
  402824:	f9400b93 	ldr	x19, [x28, #16]
  402828:	f90077a3 	str	x3, [x29, #232]
  40282c:	f94073a1 	ldr	x1, [x29, #224]
  402830:	f9405e60 	ldr	x0, [x19, #184]
  402834:	f94083b4 	ldr	x20, [x29, #256]
  402838:	97fffbae 	bl	4016f0 <plural_eval>
  40283c:	f9406261 	ldr	x1, [x19, #192]
  402840:	aa0003f3 	mov	x19, x0
  402844:	f94077a3 	ldr	x3, [x29, #232]
  402848:	eb01001f 	cmp	x0, x1
  40284c:	54ffea82 	b.cs	40259c <__dcigettext+0x3bc>  // b.hs, b.nlast
  402850:	8b140074 	add	x20, x3, x20
  402854:	aa0303e0 	mov	x0, x3
  402858:	aa0303f5 	mov	x21, x3
  40285c:	d503201f 	nop
  402860:	d1000673 	sub	x19, x19, #0x1
  402864:	b100067f 	cmn	x19, #0x1
  402868:	540008e0 	b.eq	402984 <__dcigettext+0x7a4>  // b.none
  40286c:	52800001 	mov	w1, #0x0                   	// #0
  402870:	94005404 	bl	417880 <__rawmemchr>
  402874:	91000400 	add	x0, x0, #0x1
  402878:	eb14001f 	cmp	x0, x20
  40287c:	54ffff23 	b.cc	402860 <__dcigettext+0x680>  // b.lo, b.ul, b.last
  402880:	aa1503e3 	mov	x3, x21
  402884:	17ffff46 	b	40259c <__dcigettext+0x3bc>
  402888:	aa1503e0 	mov	x0, x21
  40288c:	97fff69d 	bl	400300 <.plt+0x60>
  402890:	f9404bb9 	ldr	x25, [x29, #144]
  402894:	91000413 	add	x19, x0, #0x1
  402898:	aa1903e0 	mov	x0, x25
  40289c:	97fff699 	bl	400300 <.plt+0x60>
  4028a0:	f9403fa1 	ldr	x1, [x29, #120]
  4028a4:	8b130000 	add	x0, x0, x19
  4028a8:	8b010000 	add	x0, x0, x1
  4028ac:	940047c9 	bl	4147d0 <__libc_malloc>
  4028b0:	aa0003f8 	mov	x24, x0
  4028b4:	f9406fa3 	ldr	x3, [x29, #216]
  4028b8:	b4ffe660 	cbz	x0, 402584 <__dcigettext+0x3a4>
  4028bc:	f94043a0 	ldr	x0, [x29, #128]
  4028c0:	aa1503e1 	mov	x1, x21
  4028c4:	aa1303e2 	mov	x2, x19
  4028c8:	91000415 	add	x21, x0, #0x1
  4028cc:	9100e300 	add	x0, x24, #0x38
  4028d0:	97fff678 	bl	4002b0 <.plt+0x10>
  4028d4:	aa1503e2 	mov	x2, x21
  4028d8:	8b130015 	add	x21, x0, x19
  4028dc:	8b0202b3 	add	x19, x21, x2
  4028e0:	aa1403e1 	mov	x1, x20
  4028e4:	aa1503e0 	mov	x0, x21
  4028e8:	97fff672 	bl	4002b0 <.plt+0x10>
  4028ec:	aa1903e1 	mov	x1, x25
  4028f0:	aa1303e0 	mov	x0, x19
  4028f4:	94004ef3 	bl	4164c0 <strcpy>
  4028f8:	f9000315 	str	x21, [x24]
  4028fc:	f94652c1 	ldr	x1, [x22, #3232]
  402900:	b9000b17 	str	w23, [x24, #8]
  402904:	a94d0fa0 	ldp	x0, x3, [x29, #208]
  402908:	f9000b13 	str	x19, [x24, #16]
  40290c:	b9400021 	ldr	w1, [x1]
  402910:	f94083a4 	ldr	x4, [x29, #256]
  402914:	b9001b01 	str	w1, [x24, #24]
  402918:	a9020f1c 	stp	x28, x3, [x24, #32]
  40291c:	9125e014 	add	x20, x0, #0x978
  402920:	f9001b04 	str	x4, [x24, #48]
  402924:	9101e299 	add	x25, x20, #0x78
  402928:	aa1903e0 	mov	x0, x25
  40292c:	940035b5 	bl	410000 <___pthread_rwlock_wrlock>
  402930:	f94047a0 	ldr	x0, [x29, #136]
  402934:	91002281 	add	x1, x20, #0x8
  402938:	91244002 	add	x2, x0, #0x910
  40293c:	aa1803e0 	mov	x0, x24
  402940:	94006504 	bl	41bd50 <__tsearch>
  402944:	aa0003f3 	mov	x19, x0
  402948:	aa1903e0 	mov	x0, x25
  40294c:	94003521 	bl	40fdd0 <___pthread_rwlock_unlock>
  402950:	f9406fa3 	ldr	x3, [x29, #216]
  402954:	b4000093 	cbz	x19, 402964 <__dcigettext+0x784>
  402958:	f9400260 	ldr	x0, [x19]
  40295c:	eb18001f 	cmp	x0, x24
  402960:	54ffe120 	b.eq	402584 <__dcigettext+0x3a4>  // b.none
  402964:	aa1803e0 	mov	x0, x24
  402968:	f9006fa3 	str	x3, [x29, #216]
  40296c:	940048f9 	bl	414d50 <__free>
  402970:	f9406fa3 	ldr	x3, [x29, #216]
  402974:	17ffff04 	b	402584 <__dcigettext+0x3a4>
  402978:	94006a6e 	bl	41d330 <__stack_chk_fail>
  40297c:	aa0003e3 	mov	x3, x0
  402980:	17ffff63 	b	40270c <__dcigettext+0x52c>
  402984:	aa0003e3 	mov	x3, x0
  402988:	17ffff05 	b	40259c <__dcigettext+0x3bc>
  40298c:	d503201f 	nop

0000000000402990 <_nl_find_domain>:
  402990:	d102c3ff 	sub	sp, sp, #0xb0
  402994:	a9027bfd 	stp	x29, x30, [sp, #32]
  402998:	910083fd 	add	x29, sp, #0x20
  40299c:	a9045bf5 	stp	x21, x22, [sp, #64]
  4029a0:	f0000475 	adrp	x21, 491000 <tunable_list+0x528>
  4029a4:	aa0303f6 	mov	x22, x3
  4029a8:	f945faa4 	ldr	x4, [x21, #3056]
  4029ac:	a90353f3 	stp	x19, x20, [sp, #48]
  4029b0:	a90563f7 	stp	x23, x24, [sp, #80]
  4029b4:	aa0003f7 	mov	x23, x0
  4029b8:	aa0103f8 	mov	x24, x1
  4029bc:	a9066bf9 	stp	x25, x26, [sp, #96]
  4029c0:	d000049a 	adrp	x26, 494000 <_IO_helper_jumps+0x80>
  4029c4:	9128a354 	add	x20, x26, #0xa28
  4029c8:	f9400080 	ldr	x0, [x4]
  4029cc:	f90057e0 	str	x0, [sp, #168]
  4029d0:	d2800000 	mov	x0, #0x0                   	// #0
  4029d4:	aa0203f9 	mov	x25, x2
  4029d8:	aa1403e0 	mov	x0, x20
  4029dc:	94003451 	bl	40fb20 <___pthread_rwlock_rdlock>
  4029e0:	aa1703e0 	mov	x0, x23
  4029e4:	97fff647 	bl	400300 <.plt+0x60>
  4029e8:	aa1803e4 	mov	x4, x24
  4029ec:	91000402 	add	x2, x0, #0x1
  4029f0:	aa1703e1 	mov	x1, x23
  4029f4:	a90067ff 	stp	xzr, x25, [sp]
  4029f8:	d2800007 	mov	x7, #0x0                   	// #0
  4029fc:	b90013ff 	str	wzr, [sp, #16]
  402a00:	d2800006 	mov	x6, #0x0                   	// #0
  402a04:	d2800005 	mov	x5, #0x0                   	// #0
  402a08:	52800003 	mov	w3, #0x0                   	// #0
  402a0c:	9100e280 	add	x0, x20, #0x38
  402a10:	940006dc 	bl	404580 <_nl_make_l10nflist>
  402a14:	aa0003f3 	mov	x19, x0
  402a18:	aa1403e0 	mov	x0, x20
  402a1c:	940034ed 	bl	40fdd0 <___pthread_rwlock_unlock>
  402a20:	b40004f3 	cbz	x19, 402abc <_nl_find_domain+0x12c>
  402a24:	b9400a60 	ldr	w0, [x19, #8]
  402a28:	7100001f 	cmp	w0, #0x0
  402a2c:	5400040d 	b.le	402aac <_nl_find_domain+0x11c>
  402a30:	f9400a60 	ldr	x0, [x19, #16]
  402a34:	b40001e0 	cbz	x0, 402a70 <_nl_find_domain+0xe0>
  402a38:	f945fab5 	ldr	x21, [x21, #3056]
  402a3c:	f94057e0 	ldr	x0, [sp, #168]
  402a40:	f94002a1 	ldr	x1, [x21]
  402a44:	eb010000 	subs	x0, x0, x1
  402a48:	d2800001 	mov	x1, #0x0                   	// #0
  402a4c:	54000d41 	b.ne	402bf4 <_nl_find_domain+0x264>  // b.any
  402a50:	aa1303e0 	mov	x0, x19
  402a54:	a9427bfd 	ldp	x29, x30, [sp, #32]
  402a58:	a94353f3 	ldp	x19, x20, [sp, #48]
  402a5c:	a9445bf5 	ldp	x21, x22, [sp, #64]
  402a60:	a94563f7 	ldp	x23, x24, [sp, #80]
  402a64:	a9466bf9 	ldp	x25, x26, [sp, #96]
  402a68:	9102c3ff 	add	sp, sp, #0xb0
  402a6c:	d65f03c0 	ret
  402a70:	f9401260 	ldr	x0, [x19, #32]
  402a74:	b4fffe20 	cbz	x0, 402a38 <_nl_find_domain+0xa8>
  402a78:	91008274 	add	x20, x19, #0x20
  402a7c:	14000006 	b	402a94 <_nl_find_domain+0x104>
  402a80:	f9400280 	ldr	x0, [x20]
  402a84:	f9400800 	ldr	x0, [x0, #16]
  402a88:	b5fffd80 	cbnz	x0, 402a38 <_nl_find_domain+0xa8>
  402a8c:	f8408e80 	ldr	x0, [x20, #8]!
  402a90:	b4fffd40 	cbz	x0, 402a38 <_nl_find_domain+0xa8>
  402a94:	b9400802 	ldr	w2, [x0, #8]
  402a98:	7100005f 	cmp	w2, #0x0
  402a9c:	54ffff2c 	b.gt	402a80 <_nl_find_domain+0xf0>
  402aa0:	aa1603e1 	mov	x1, x22
  402aa4:	94000057 	bl	402c00 <_nl_load_domain>
  402aa8:	17fffff6 	b	402a80 <_nl_find_domain+0xf0>
  402aac:	aa1603e1 	mov	x1, x22
  402ab0:	aa1303e0 	mov	x0, x19
  402ab4:	94000053 	bl	402c00 <_nl_load_domain>
  402ab8:	17ffffde 	b	402a30 <_nl_find_domain+0xa0>
  402abc:	aa1803e0 	mov	x0, x24
  402ac0:	a90773fb 	stp	x27, x28, [sp, #112]
  402ac4:	94000633 	bl	404390 <_nl_expand_alias>
  402ac8:	aa0003fc 	mov	x28, x0
  402acc:	b4000140 	cbz	x0, 402af4 <_nl_find_domain+0x164>
  402ad0:	97fff60c 	bl	400300 <.plt+0x60>
  402ad4:	91000414 	add	x20, x0, #0x1
  402ad8:	aa1403e0 	mov	x0, x20
  402adc:	9400473d 	bl	4147d0 <__libc_malloc>
  402ae0:	aa0003f8 	mov	x24, x0
  402ae4:	b4000560 	cbz	x0, 402b90 <_nl_find_domain+0x200>
  402ae8:	aa1403e2 	mov	x2, x20
  402aec:	aa1c03e1 	mov	x1, x28
  402af0:	97fff5f0 	bl	4002b0 <.plt+0x10>
  402af4:	910283e5 	add	x5, sp, #0xa0
  402af8:	910263e4 	add	x4, sp, #0x98
  402afc:	910243e3 	add	x3, sp, #0x90
  402b00:	910223e2 	add	x2, sp, #0x88
  402b04:	910203e1 	add	x1, sp, #0x80
  402b08:	aa1803e0 	mov	x0, x24
  402b0c:	94000849 	bl	404c30 <_nl_explode_name>
  402b10:	2a0003fb 	mov	w27, w0
  402b14:	3100041f 	cmn	w0, #0x1
  402b18:	540003c0 	b.eq	402b90 <_nl_find_domain+0x200>  // b.none
  402b1c:	9128a35a 	add	x26, x26, #0xa28
  402b20:	aa1a03e0 	mov	x0, x26
  402b24:	94003537 	bl	410000 <___pthread_rwlock_wrlock>
  402b28:	aa1703e0 	mov	x0, x23
  402b2c:	97fff5f5 	bl	400300 <.plt+0x60>
  402b30:	a94823e4 	ldp	x4, x8, [sp, #128]
  402b34:	91000402 	add	x2, x0, #0x1
  402b38:	a9491be5 	ldp	x5, x6, [sp, #144]
  402b3c:	52800020 	mov	w0, #0x1                   	// #1
  402b40:	f94053e7 	ldr	x7, [sp, #160]
  402b44:	aa1703e1 	mov	x1, x23
  402b48:	2a1b03e3 	mov	w3, w27
  402b4c:	a90067e8 	stp	x8, x25, [sp]
  402b50:	b90013e0 	str	w0, [sp, #16]
  402b54:	9100e340 	add	x0, x26, #0x38
  402b58:	9400068a 	bl	404580 <_nl_make_l10nflist>
  402b5c:	aa0003f3 	mov	x19, x0
  402b60:	aa1a03e0 	mov	x0, x26
  402b64:	9400349b 	bl	40fdd0 <___pthread_rwlock_unlock>
  402b68:	b4000133 	cbz	x19, 402b8c <_nl_find_domain+0x1fc>
  402b6c:	b9400a60 	ldr	w0, [x19, #8]
  402b70:	7100001f 	cmp	w0, #0x0
  402b74:	5400038d 	b.le	402be4 <_nl_find_domain+0x254>
  402b78:	f9400a60 	ldr	x0, [x19, #16]
  402b7c:	b4000160 	cbz	x0, 402ba8 <_nl_find_domain+0x218>
  402b80:	b400007c 	cbz	x28, 402b8c <_nl_find_domain+0x1fc>
  402b84:	aa1803e0 	mov	x0, x24
  402b88:	94004872 	bl	414d50 <__free>
  402b8c:	3700007b 	tbnz	w27, #0, 402b98 <_nl_find_domain+0x208>
  402b90:	a94773fb 	ldp	x27, x28, [sp, #112]
  402b94:	17ffffa9 	b	402a38 <_nl_find_domain+0xa8>
  402b98:	f94053e0 	ldr	x0, [sp, #160]
  402b9c:	9400486d 	bl	414d50 <__free>
  402ba0:	a94773fb 	ldp	x27, x28, [sp, #112]
  402ba4:	17ffffa5 	b	402a38 <_nl_find_domain+0xa8>
  402ba8:	f9401260 	ldr	x0, [x19, #32]
  402bac:	b4fffea0 	cbz	x0, 402b80 <_nl_find_domain+0x1f0>
  402bb0:	91008274 	add	x20, x19, #0x20
  402bb4:	14000006 	b	402bcc <_nl_find_domain+0x23c>
  402bb8:	f9400280 	ldr	x0, [x20]
  402bbc:	f9400800 	ldr	x0, [x0, #16]
  402bc0:	b5fffe00 	cbnz	x0, 402b80 <_nl_find_domain+0x1f0>
  402bc4:	f8408e80 	ldr	x0, [x20, #8]!
  402bc8:	b4fffdc0 	cbz	x0, 402b80 <_nl_find_domain+0x1f0>
  402bcc:	b9400801 	ldr	w1, [x0, #8]
  402bd0:	7100003f 	cmp	w1, #0x0
  402bd4:	54ffff2c 	b.gt	402bb8 <_nl_find_domain+0x228>
  402bd8:	aa1603e1 	mov	x1, x22
  402bdc:	94000009 	bl	402c00 <_nl_load_domain>
  402be0:	17fffff6 	b	402bb8 <_nl_find_domain+0x228>
  402be4:	aa1603e1 	mov	x1, x22
  402be8:	aa1303e0 	mov	x0, x19
  402bec:	94000005 	bl	402c00 <_nl_load_domain>
  402bf0:	17ffffe2 	b	402b78 <_nl_find_domain+0x1e8>
  402bf4:	a90773fb 	stp	x27, x28, [sp, #112]
  402bf8:	940069ce 	bl	41d330 <__stack_chk_fail>
  402bfc:	d503201f 	nop

0000000000402c00 <_nl_load_domain>:
  402c00:	a9a67bfd 	stp	x29, x30, [sp, #-416]!
  402c04:	910003fd 	mov	x29, sp
  402c08:	a90153f3 	stp	x19, x20, [sp, #16]
  402c0c:	d0000493 	adrp	x19, 494000 <_IO_helper_jumps+0x80>
  402c10:	aa0003f4 	mov	x20, x0
  402c14:	a9025bf5 	stp	x21, x22, [sp, #32]
  402c18:	9129a276 	add	x22, x19, #0xa68
  402c1c:	f0000475 	adrp	x21, 491000 <tunable_list+0x528>
  402c20:	a90363f7 	stp	x23, x24, [sp, #48]
  402c24:	d53bd057 	mrs	x23, tpidr_el0
  402c28:	d11f02f8 	sub	x24, x23, #0x7c0
  402c2c:	f945faa3 	ldr	x3, [x21, #3056]
  402c30:	a9046bf9 	stp	x25, x26, [sp, #64]
  402c34:	aa0103f9 	mov	x25, x1
  402c38:	f94006c2 	ldr	x2, [x22, #8]
  402c3c:	f9400064 	ldr	x4, [x3]
  402c40:	f900cfe4 	str	x4, [sp, #408]
  402c44:	d2800004 	mov	x4, #0x0                   	// #0
  402c48:	eb18005f 	cmp	x2, x24
  402c4c:	54000100 	b.eq	402c6c <_nl_load_domain+0x6c>  // b.none
  402c50:	aa1603e2 	mov	x2, x22
  402c54:	52800021 	mov	w1, #0x1                   	// #1
  402c58:	52800000 	mov	w0, #0x0                   	// #0
  402c5c:	94013eb9 	bl	452740 <__aarch64_cas4_acq>
  402c60:	350029c0 	cbnz	w0, 403198 <_nl_load_domain+0x598>
  402c64:	9129a260 	add	x0, x19, #0xa68
  402c68:	f9000418 	str	x24, [x0, #8]
  402c6c:	9129a276 	add	x22, x19, #0xa68
  402c70:	b9400a80 	ldr	w0, [x20, #8]
  402c74:	b94006c2 	ldr	w2, [x22, #4]
  402c78:	11000441 	add	w1, w2, #0x1
  402c7c:	b90006c1 	str	w1, [x22, #4]
  402c80:	35001ea0 	cbnz	w0, 403054 <_nl_load_domain+0x454>
  402c84:	f9400280 	ldr	x0, [x20]
  402c88:	12800001 	mov	w1, #0xffffffff            	// #-1
  402c8c:	b9000a81 	str	w1, [x20, #8]
  402c90:	f9000a9f 	str	xzr, [x20, #16]
  402c94:	b4001dc0 	cbz	x0, 40304c <_nl_load_domain+0x44c>
  402c98:	52800001 	mov	w1, #0x0                   	// #0
  402c9c:	94006241 	bl	41b5a0 <__open64_nocancel>
  402ca0:	2a0003f8 	mov	w24, w0
  402ca4:	3100041f 	cmn	w0, #0x1
  402ca8:	54002720 	b.eq	40318c <_nl_load_domain+0x58c>  // b.none
  402cac:	910463e1 	add	x1, sp, #0x118
  402cb0:	94005f28 	bl	41a950 <__fstat>
  402cb4:	2a0003fa 	mov	w26, w0
  402cb8:	35001c00 	cbnz	w0, 403038 <_nl_load_domain+0x438>
  402cbc:	a90573fb 	stp	x27, x28, [sp, #80]
  402cc0:	f940a7fc 	ldr	x28, [sp, #328]
  402cc4:	f100bf9f 	cmp	x28, #0x2f
  402cc8:	54003629 	b.ls	40338c <_nl_load_domain+0x78c>  // b.plast
  402ccc:	2a1803e4 	mov	w4, w24
  402cd0:	aa1c03e1 	mov	x1, x28
  402cd4:	d2800005 	mov	x5, #0x0                   	// #0
  402cd8:	52800043 	mov	w3, #0x2                   	// #2
  402cdc:	52800022 	mov	w2, #0x1                   	// #1
  402ce0:	d2800000 	mov	x0, #0x0                   	// #0
  402ce4:	940062fb 	bl	41b8d0 <__mmap64>
  402ce8:	aa0003fb 	mov	x27, x0
  402cec:	b100041f 	cmn	x0, #0x1
  402cf0:	54002f00 	b.eq	4032d0 <_nl_load_domain+0x6d0>  // b.none
  402cf4:	2a1803e0 	mov	w0, w24
  402cf8:	940061b2 	bl	41b3c0 <__close_nocancel>
  402cfc:	b9400363 	ldr	w3, [x27]
  402d00:	52825bc1 	mov	w1, #0x12de                	// #4830
  402d04:	72b2a081 	movk	w1, #0x9504, lsl #16
  402d08:	528092a0 	mov	w0, #0x495                 	// #1173
  402d0c:	6b01007f 	cmp	w3, w1
  402d10:	72bbc240 	movk	w0, #0xde12, lsl #16
  402d14:	1a9f07f7 	cset	w23, ne  // ne = any
  402d18:	710002ff 	cmp	w23, #0x0
  402d1c:	7a401064 	ccmp	w3, w0, #0x4, ne  // ne = any
  402d20:	54002641 	b.ne	4031e8 <_nl_load_domain+0x5e8>  // b.any
  402d24:	5280003a 	mov	w26, #0x1                   	// #1
  402d28:	d2801900 	mov	x0, #0xc8                  	// #200
  402d2c:	b90063e3 	str	w3, [sp, #96]
  402d30:	940046a8 	bl	4147d0 <__libc_malloc>
  402d34:	aa0003f8 	mov	x24, x0
  402d38:	b94063e3 	ldr	w3, [sp, #96]
  402d3c:	b4002040 	cbz	x0, 403144 <_nl_load_domain+0x544>
  402d40:	b9400760 	ldr	w0, [x27, #4]
  402d44:	52825bc1 	mov	w1, #0x12de                	// #4830
  402d48:	f900031b 	str	x27, [x24]
  402d4c:	72b2a081 	movk	w1, #0x9504, lsl #16
  402d50:	b9000b1a 	str	w26, [x24, #8]
  402d54:	f9000a98 	str	x24, [x20, #16]
  402d58:	f9000b1c 	str	x28, [x24, #16]
  402d5c:	b9001b17 	str	w23, [x24, #24]
  402d60:	f900131f 	str	xzr, [x24, #32]
  402d64:	6b01007f 	cmp	w3, w1
  402d68:	54001a60 	b.eq	4030b4 <_nl_load_domain+0x4b4>  // b.none
  402d6c:	5ac00800 	rev	w0, w0
  402d70:	2a0003e7 	mov	w7, w0
  402d74:	13107c01 	asr	w1, w0, #16
  402d78:	7100043f 	cmp	w1, #0x1
  402d7c:	54001ee8 	b.hi	403158 <_nl_load_domain+0x558>  // b.pmore
  402d80:	29410b64 	ldp	w4, w2, [x27, #8]
  402d84:	29422361 	ldp	w1, w8, [x27, #16]
  402d88:	5ac00842 	rev	w2, w2
  402d8c:	8b020362 	add	x2, x27, x2
  402d90:	5ac00884 	rev	w4, w4
  402d94:	5ac00821 	rev	w1, w1
  402d98:	5ac00905 	rev	w5, w8
  402d9c:	8b010361 	add	x1, x27, x1
  402da0:	b9002b04 	str	w4, [x24, #40]
  402da4:	a9030702 	stp	x2, x1, [x24, #48]
  402da8:	b9005b05 	str	w5, [x24, #88]
  402dac:	b90063e5 	str	w5, [sp, #96]
  402db0:	710008bf 	cmp	w5, #0x2
  402db4:	540019c9 	b.ls	4030ec <_nl_load_domain+0x4ec>  // b.plast
  402db8:	b9401b61 	ldr	w1, [x27, #24]
  402dbc:	b9006b17 	str	w23, [x24, #104]
  402dc0:	5ac00821 	rev	w1, w1
  402dc4:	8b010361 	add	x1, x27, x1
  402dc8:	f9003301 	str	x1, [x24, #96]
  402dcc:	f90043e1 	str	x1, [sp, #128]
  402dd0:	72003c1f 	tst	w0, #0xffff
  402dd4:	54001940 	b.eq	4030fc <_nl_load_domain+0x4fc>  // b.none
  402dd8:	b9402760 	ldr	w0, [x27, #36]
  402ddc:	5ac00801 	rev	w1, w0
  402de0:	b9006be1 	str	w1, [sp, #104]
  402de4:	340018c0 	cbz	w0, 4030fc <_nl_load_domain+0x4fc>
  402de8:	2943db60 	ldp	w0, w22, [x27, #28]
  402dec:	5ac00ad6 	rev	w22, w22
  402df0:	5ac00800 	rev	w0, w0
  402df4:	b9007be0 	str	w0, [sp, #120]
  402df8:	b9407bf7 	ldr	w23, [sp, #120]
  402dfc:	d2800101 	mov	x1, #0x8                   	// #8
  402e00:	8b160376 	add	x22, x27, x22
  402e04:	b90073e3 	str	w3, [sp, #112]
  402e08:	aa1703e0 	mov	x0, x23
  402e0c:	940049f1 	bl	4155d0 <__calloc>
  402e10:	aa0003e7 	mov	x7, x0
  402e14:	b4001a20 	cbz	x0, 403158 <_nl_load_domain+0x558>
  402e18:	b9407be1 	ldr	w1, [sp, #120]
  402e1c:	d37df2e0 	lsl	x0, x23, #3
  402e20:	b94073e3 	ldr	w3, [sp, #112]
  402e24:	910012c8 	add	x8, x22, #0x4
  402e28:	d2800002 	mov	x2, #0x0                   	// #0
  402e2c:	34000681 	cbz	w1, 402efc <_nl_load_domain+0x2fc>
  402e30:	d00002a1 	adrp	x1, 458000 <free_modules_db+0x40>
  402e34:	d00002a4 	adrp	x4, 458000 <free_modules_db+0x40>
  402e38:	912ae037 	add	x23, x1, #0xab8
  402e3c:	912a2084 	add	x4, x4, #0xa88
  402e40:	90000361 	adrp	x1, 46e000 <collseqmb+0x48>
  402e44:	91128021 	add	x1, x1, #0x4a0
  402e48:	f9003be4 	str	x4, [sp, #112]
  402e4c:	d00002a4 	adrp	x4, 458000 <free_modules_db+0x40>
  402e50:	f90047e1 	str	x1, [sp, #136]
  402e54:	d00002a1 	adrp	x1, 458000 <free_modules_db+0x40>
  402e58:	9129a092 	add	x18, x4, #0xa68
  402e5c:	9129c026 	add	x6, x1, #0xa70
  402e60:	d00002aa 	adrp	x10, 458000 <free_modules_db+0x40>
  402e64:	d00002af 	adrp	x15, 458000 <free_modules_db+0x40>
  402e68:	d00002ae 	adrp	x14, 458000 <free_modules_db+0x40>
  402e6c:	d00002ad 	adrp	x13, 458000 <free_modules_db+0x40>
  402e70:	d00002ac 	adrp	x12, 458000 <free_modules_db+0x40>
  402e74:	52825bc9 	mov	w9, #0x12de                	// #4830
  402e78:	d00002a4 	adrp	x4, 458000 <free_modules_db+0x40>
  402e7c:	90000341 	adrp	x1, 46a000 <translit_from_idx+0x13d0>
  402e80:	912ac14a 	add	x10, x10, #0xab0
  402e84:	912aa1ef 	add	x15, x15, #0xaa8
  402e88:	912a81ce 	add	x14, x14, #0xaa0
  402e8c:	912a61ad 	add	x13, x13, #0xa98
  402e90:	912a418c 	add	x12, x12, #0xa90
  402e94:	9129e085 	add	x5, x4, #0xa78
  402e98:	911a203e 	add	x30, x1, #0x688
  402e9c:	72b2a089 	movk	w9, #0x9504, lsl #16
  402ea0:	b8626901 	ldr	w1, [x8, x2]
  402ea4:	b8626ac4 	ldr	w4, [x22, x2]
  402ea8:	6b09007f 	cmp	w3, w9
  402eac:	54001ac0 	b.eq	403204 <_nl_load_domain+0x604>  // b.none
  402eb0:	5ac00821 	rev	w1, w1
  402eb4:	5ac00884 	rev	w4, w4
  402eb8:	8b010361 	add	x1, x27, x1
  402ebc:	34002764 	cbz	w4, 4033a8 <_nl_load_domain+0x7a8>
  402ec0:	51000484 	sub	w4, w4, #0x1
  402ec4:	38644824 	ldrb	w4, [x1, w4, uxtw]
  402ec8:	35002704 	cbnz	w4, 4033a8 <_nl_load_domain+0x7a8>
  402ecc:	39400024 	ldrb	w4, [x1]
  402ed0:	7101409f 	cmp	w4, #0x50
  402ed4:	540019c0 	b.eq	40320c <_nl_load_domain+0x60c>  // b.none
  402ed8:	7101249f 	cmp	w4, #0x49
  402edc:	540026e1 	b.ne	4033b8 <_nl_load_domain+0x7b8>  // b.any
  402ee0:	39400421 	ldrb	w1, [x1, #1]
  402ee4:	7100003f 	cmp	w1, #0x0
  402ee8:	9a9f0144 	csel	x4, x10, xzr, eq  // eq = none
  402eec:	f82268e4 	str	x4, [x7, x2]
  402ef0:	91002042 	add	x2, x2, #0x8
  402ef4:	eb02001f 	cmp	x0, x2
  402ef8:	54fffd41 	b.ne	402ea0 <_nl_load_domain+0x2a0>  // b.any
  402efc:	52825bc2 	mov	w2, #0x12de                	// #4830
  402f00:	29450361 	ldp	w1, w0, [x27, #40]
  402f04:	72b2a082 	movk	w2, #0x9504, lsl #16
  402f08:	6b02007f 	cmp	w3, w2
  402f0c:	54002960 	b.eq	403438 <_nl_load_domain+0x838>  // b.none
  402f10:	5ac00821 	rev	w1, w1
  402f14:	5ac00800 	rev	w0, w0
  402f18:	8b010361 	add	x1, x27, x1
  402f1c:	f90057e1 	str	x1, [sp, #168]
  402f20:	f94033e1 	ldr	x1, [sp, #96]
  402f24:	a90ce7f4 	stp	x20, x25, [sp, #200]
  402f28:	b9407bf9 	ldr	w25, [sp, #120]
  402f2c:	8b000360 	add	x0, x27, x0
  402f30:	2a0303f6 	mov	w22, w3
  402f34:	d37e7c21 	ubfiz	x1, x1, #2, #32
  402f38:	f90053e1 	str	x1, [sp, #160]
  402f3c:	b900b3fa 	str	w26, [sp, #176]
  402f40:	aa0703fa 	mov	x26, x7
  402f44:	a90be3fc 	stp	x28, x24, [sp, #184]
  402f48:	f9006fe1 	str	x1, [sp, #216]
  402f4c:	d2800001 	mov	x1, #0x0                   	// #0
  402f50:	aa0103f8 	mov	x24, x1
  402f54:	f9003bfb 	str	x27, [sp, #112]
  402f58:	f90047e0 	str	x0, [sp, #136]
  402f5c:	910423e0 	add	x0, sp, #0x108
  402f60:	f9004be0 	str	x0, [sp, #144]
  402f64:	b9009fff 	str	wzr, [sp, #156]
  402f68:	f9404bfc 	ldr	x28, [sp, #144]
  402f6c:	52800017 	mov	w23, #0x0                   	// #0
  402f70:	52825bc0 	mov	w0, #0x12de                	// #4830
  402f74:	72b2a080 	movk	w0, #0x9504, lsl #16
  402f78:	6b0002df 	cmp	w22, w0
  402f7c:	54001fc0 	b.eq	403374 <_nl_load_domain+0x774>  // b.none
  402f80:	34002537 	cbz	w23, 403424 <_nl_load_domain+0x824>
  402f84:	f94047e0 	ldr	x0, [sp, #136]
  402f88:	b8787802 	ldr	w2, [x0, x24, lsl #2]
  402f8c:	5ac00842 	rev	w2, w2
  402f90:	f9403be0 	ldr	x0, [sp, #112]
  402f94:	d2800014 	mov	x20, #0x0                   	// #0
  402f98:	8b020002 	add	x2, x0, x2
  402f9c:	b9400840 	ldr	w0, [x2, #8]
  402fa0:	3100041f 	cmn	w0, #0x1
  402fa4:	1a9f07e0 	cset	w0, ne  // ne = any
  402fa8:	350020c0 	cbnz	w0, 4033c0 <_nl_load_domain+0x7c0>
  402fac:	f8008794 	str	x20, [x28], #8
  402fb0:	34001eb7 	cbz	w23, 403384 <_nl_load_domain+0x784>
  402fb4:	b9409fe1 	ldr	w1, [sp, #156]
  402fb8:	f94087e0 	ldr	x0, [sp, #264]
  402fbc:	11000421 	add	w1, w1, #0x1
  402fc0:	b9009fe1 	str	w1, [sp, #156]
  402fc4:	f9408be1 	ldr	x1, [sp, #272]
  402fc8:	8b010000 	add	x0, x0, x1
  402fcc:	f94053e1 	ldr	x1, [sp, #160]
  402fd0:	8b000020 	add	x0, x1, x0
  402fd4:	f90053e0 	str	x0, [sp, #160]
  402fd8:	b9406be0 	ldr	w0, [sp, #104]
  402fdc:	91000718 	add	x24, x24, #0x1
  402fe0:	6b18001f 	cmp	w0, w24
  402fe4:	54fffc28 	b.hi	402f68 <_nl_load_domain+0x368>  // b.pmore
  402fe8:	b9409fe0 	ldr	w0, [sp, #156]
  402fec:	aa1a03e7 	mov	x7, x26
  402ff0:	2a1603e3 	mov	w3, w22
  402ff4:	b940b3fa 	ldr	w26, [sp, #176]
  402ff8:	f9403bfb 	ldr	x27, [sp, #112]
  402ffc:	a94be3fc 	ldp	x28, x24, [sp, #184]
  403000:	a94ce7f4 	ldp	x20, x25, [sp, #200]
  403004:	350033c0 	cbnz	w0, 40367c <_nl_load_domain+0xa7c>
  403008:	b900431f 	str	wzr, [x24, #64]
  40300c:	a904ff1f 	stp	xzr, xzr, [x24, #72]
  403010:	aa0703e0 	mov	x0, x7
  403014:	9400474f 	bl	414d50 <__free>
  403018:	1400003b 	b	403104 <_nl_load_domain+0x504>
  40301c:	b100041f 	cmn	x0, #0x1
  403020:	54000081 	b.ne	403030 <_nl_load_domain+0x430>  // b.any
  403024:	b8766ae0 	ldr	w0, [x23, x22]
  403028:	7100101f 	cmp	w0, #0x4
  40302c:	54001680 	b.eq	4032fc <_nl_load_domain+0x6fc>  // b.none
  403030:	a94573fb 	ldp	x27, x28, [sp, #80]
  403034:	2a1a03f8 	mov	w24, w26
  403038:	2a1803e0 	mov	w0, w24
  40303c:	940060e1 	bl	41b3c0 <__close_nocancel>
  403040:	9129a260 	add	x0, x19, #0xa68
  403044:	b9400402 	ldr	w2, [x0, #4]
  403048:	51000442 	sub	w2, w2, #0x1
  40304c:	52800020 	mov	w0, #0x1                   	// #1
  403050:	b9000a80 	str	w0, [x20, #8]
  403054:	9129a273 	add	x19, x19, #0xa68
  403058:	b9000662 	str	w2, [x19, #4]
  40305c:	340001a2 	cbz	w2, 403090 <_nl_load_domain+0x490>
  403060:	f945fab5 	ldr	x21, [x21, #3056]
  403064:	f940cfe0 	ldr	x0, [sp, #408]
  403068:	f94002a1 	ldr	x1, [x21]
  40306c:	eb010000 	subs	x0, x0, x1
  403070:	d2800001 	mov	x1, #0x0                   	// #0
  403074:	540051c1 	b.ne	403aac <_nl_load_domain+0xeac>  // b.any
  403078:	a94153f3 	ldp	x19, x20, [sp, #16]
  40307c:	a9425bf5 	ldp	x21, x22, [sp, #32]
  403080:	a94363f7 	ldp	x23, x24, [sp, #48]
  403084:	a9446bf9 	ldp	x25, x26, [sp, #64]
  403088:	a8da7bfd 	ldp	x29, x30, [sp], #416
  40308c:	d65f03c0 	ret
  403090:	aa1303e1 	mov	x1, x19
  403094:	52800000 	mov	w0, #0x0                   	// #0
  403098:	f900067f 	str	xzr, [x19, #8]
  40309c:	94013e3d 	bl	452990 <__aarch64_swp4_rel>
  4030a0:	7100041f 	cmp	w0, #0x1
  4030a4:	54fffded 	b.le	403060 <_nl_load_domain+0x460>
  4030a8:	aa1303e0 	mov	x0, x19
  4030ac:	940031ce 	bl	40f7e4 <__lll_lock_wake_private>
  4030b0:	17ffffec 	b	403060 <_nl_load_domain+0x460>
  4030b4:	13107c01 	asr	w1, w0, #16
  4030b8:	2a0003e7 	mov	w7, w0
  4030bc:	7100043f 	cmp	w1, #0x1
  4030c0:	540004c8 	b.hi	403158 <_nl_load_domain+0x558>  // b.pmore
  4030c4:	29421761 	ldp	w1, w5, [x27, #16]
  4030c8:	b90063e5 	str	w5, [sp, #96]
  4030cc:	29410b64 	ldp	w4, w2, [x27, #8]
  4030d0:	8b010361 	add	x1, x27, x1
  4030d4:	b9002b04 	str	w4, [x24, #40]
  4030d8:	8b020362 	add	x2, x27, x2
  4030dc:	a9030702 	stp	x2, x1, [x24, #48]
  4030e0:	b9005b05 	str	w5, [x24, #88]
  4030e4:	710008bf 	cmp	w5, #0x2
  4030e8:	54000668 	b.hi	4031b4 <_nl_load_domain+0x5b4>  // b.pmore
  4030ec:	f900331f 	str	xzr, [x24, #96]
  4030f0:	b9006b17 	str	w23, [x24, #104]
  4030f4:	72003cff 	tst	w7, #0xffff
  4030f8:	54000301 	b.ne	403158 <_nl_load_domain+0x558>  // b.any
  4030fc:	b900431f 	str	wzr, [x24, #64]
  403100:	a904ff1f 	stp	xzr, xzr, [x24, #72]
  403104:	d2800001 	mov	x1, #0x0                   	// #0
  403108:	a9077f1f 	stp	xzr, xzr, [x24, #112]
  40310c:	91020300 	add	x0, x24, #0x80
  403110:	94003270 	bl	40fad0 <___pthread_rwlock_init>
  403114:	f0000322 	adrp	x2, 46a000 <translit_from_idx+0x13d0>
  403118:	aa1903e1 	mov	x1, x25
  40311c:	910403e4 	add	x4, sp, #0x100
  403120:	911c4042 	add	x2, x2, #0x710
  403124:	aa1403e0 	mov	x0, x20
  403128:	52800003 	mov	w3, #0x0                   	// #0
  40312c:	97fffa19 	bl	401990 <_nl_find_msg>
  403130:	b100041f 	cmn	x0, #0x1
  403134:	540017e0 	b.eq	403430 <_nl_load_domain+0x830>  // b.none
  403138:	91030302 	add	x2, x24, #0xc0
  40313c:	9102e301 	add	x1, x24, #0xb8
  403140:	9400099c 	bl	4057b0 <__gettext_extract_plural>
  403144:	9129a260 	add	x0, x19, #0xa68
  403148:	a94573fb 	ldp	x27, x28, [sp, #80]
  40314c:	b9400402 	ldr	w2, [x0, #4]
  403150:	51000442 	sub	w2, w2, #0x1
  403154:	17ffffbe 	b	40304c <_nl_load_domain+0x44c>
  403158:	d2800000 	mov	x0, #0x0                   	// #0
  40315c:	940046fd 	bl	414d50 <__free>
  403160:	3500023a 	cbnz	w26, 4031a4 <_nl_load_domain+0x5a4>
  403164:	aa1b03e0 	mov	x0, x27
  403168:	940046fa 	bl	414d50 <__free>
  40316c:	aa1803e0 	mov	x0, x24
  403170:	940046f8 	bl	414d50 <__free>
  403174:	9129a260 	add	x0, x19, #0xa68
  403178:	a94573fb 	ldp	x27, x28, [sp, #80]
  40317c:	f9000a9f 	str	xzr, [x20, #16]
  403180:	b9400402 	ldr	w2, [x0, #4]
  403184:	51000442 	sub	w2, w2, #0x1
  403188:	17ffffb1 	b	40304c <_nl_load_domain+0x44c>
  40318c:	b94006c2 	ldr	w2, [x22, #4]
  403190:	51000442 	sub	w2, w2, #0x1
  403194:	17ffffae 	b	40304c <_nl_load_domain+0x44c>
  403198:	aa1603e0 	mov	x0, x22
  40319c:	94003151 	bl	40f6e0 <__lll_lock_wait_private>
  4031a0:	17fffeb1 	b	402c64 <_nl_load_domain+0x64>
  4031a4:	aa1c03e1 	mov	x1, x28
  4031a8:	aa1b03e0 	mov	x0, x27
  4031ac:	940061e5 	bl	41b940 <__munmap>
  4031b0:	17ffffef 	b	40316c <_nl_load_domain+0x56c>
  4031b4:	b9401b61 	ldr	w1, [x27, #24]
  4031b8:	b9006b17 	str	w23, [x24, #104]
  4031bc:	8b010361 	add	x1, x27, x1
  4031c0:	f9003301 	str	x1, [x24, #96]
  4031c4:	f90043e1 	str	x1, [sp, #128]
  4031c8:	72003c1f 	tst	w0, #0xffff
  4031cc:	54fff980 	b.eq	4030fc <_nl_load_domain+0x4fc>  // b.none
  4031d0:	b9402760 	ldr	w0, [x27, #36]
  4031d4:	b9006be0 	str	w0, [sp, #104]
  4031d8:	34fff920 	cbz	w0, 4030fc <_nl_load_domain+0x4fc>
  4031dc:	2943db60 	ldp	w0, w22, [x27, #28]
  4031e0:	b9007be0 	str	w0, [sp, #120]
  4031e4:	17ffff05 	b	402df8 <_nl_load_domain+0x1f8>
  4031e8:	aa1c03e1 	mov	x1, x28
  4031ec:	aa1b03e0 	mov	x0, x27
  4031f0:	940061d4 	bl	41b940 <__munmap>
  4031f4:	b94006c2 	ldr	w2, [x22, #4]
  4031f8:	a94573fb 	ldp	x27, x28, [sp, #80]
  4031fc:	51000442 	sub	w2, w2, #0x1
  403200:	17ffff93 	b	40304c <_nl_load_domain+0x44c>
  403204:	8b214361 	add	x1, x27, w1, uxtw
  403208:	17ffff2d 	b	402ebc <_nl_load_domain+0x2bc>
  40320c:	3940042b 	ldrb	w11, [x1, #1]
  403210:	d2800004 	mov	x4, #0x0                   	// #0
  403214:	7101497f 	cmp	w11, #0x52
  403218:	54ffe6a1 	b.ne	402eec <_nl_load_domain+0x2ec>  // b.any
  40321c:	3940082b 	ldrb	w11, [x1, #2]
  403220:	7101257f 	cmp	w11, #0x49
  403224:	54ffe641 	b.ne	402eec <_nl_load_domain+0x2ec>  // b.any
  403228:	39400c2b 	ldrb	w11, [x1, #3]
  40322c:	7101917f 	cmp	w11, #0x64
  403230:	1a9f17f1 	cset	w17, eq  // eq = none
  403234:	7101a57f 	cmp	w11, #0x69
  403238:	1a9f17f0 	cset	w16, eq  // eq = none
  40323c:	2a100230 	orr	w16, w17, w16
  403240:	b90093f0 	str	w16, [sp, #144]
  403244:	35000130 	cbnz	w16, 403268 <_nl_load_domain+0x668>
  403248:	51016170 	sub	w16, w11, #0x58
  40324c:	12001e10 	and	w16, w16, #0xff
  403250:	7100821f 	cmp	w16, #0x20
  403254:	54ffe4c8 	b.hi	402eec <_nl_load_domain+0x2ec>  // b.pmore
  403258:	b20003f1 	mov	x17, #0x100000001           	// #4294967297
  40325c:	f2a41011 	movk	x17, #0x2080, lsl #16
  403260:	9ad02630 	lsr	x16, x17, x16
  403264:	3607e450 	tbz	w16, #0, 402eec <_nl_load_domain+0x2ec>
  403268:	39401024 	ldrb	w4, [x1, #4]
  40326c:	7100e09f 	cmp	w4, #0x38
  403270:	54001a80 	b.eq	4035c0 <_nl_load_domain+0x9c0>  // b.none
  403274:	7100c49f 	cmp	w4, #0x31
  403278:	54001c60 	b.eq	403604 <_nl_load_domain+0xa04>  // b.none
  40327c:	7100cc9f 	cmp	w4, #0x33
  403280:	54000e41 	b.ne	403448 <_nl_load_domain+0x848>  // b.any
  403284:	39401430 	ldrb	w16, [x1, #5]
  403288:	d2800004 	mov	x4, #0x0                   	// #0
  40328c:	7100ca1f 	cmp	w16, #0x32
  403290:	54ffe2e1 	b.ne	402eec <_nl_load_domain+0x2ec>  // b.any
  403294:	39401821 	ldrb	w1, [x1, #6]
  403298:	35ffe2a1 	cbnz	w1, 402eec <_nl_load_domain+0x2ec>
  40329c:	7101917f 	cmp	w11, #0x64
  4032a0:	540043e0 	b.eq	403b1c <_nl_load_domain+0xf1c>  // b.none
  4032a4:	b94093e1 	ldr	w1, [sp, #144]
  4032a8:	350043e1 	cbnz	w1, 403b24 <_nl_load_domain+0xf24>
  4032ac:	7101bd7f 	cmp	w11, #0x6f
  4032b0:	54004460 	b.eq	403b3c <_nl_load_domain+0xf3c>  // b.none
  4032b4:	7101d57f 	cmp	w11, #0x75
  4032b8:	54005500 	b.eq	403d58 <_nl_load_domain+0x1158>  // b.none
  4032bc:	7101e17f 	cmp	w11, #0x78
  4032c0:	b00002a4 	adrp	x4, 458000 <free_modules_db+0x40>
  4032c4:	912a0084 	add	x4, x4, #0xa80
  4032c8:	9a8413c4 	csel	x4, x30, x4, ne  // ne = any
  4032cc:	17ffff08 	b	402eec <_nl_load_domain+0x2ec>
  4032d0:	aa1c03e0 	mov	x0, x28
  4032d4:	9400453f 	bl	4147d0 <__libc_malloc>
  4032d8:	aa0003fb 	mov	x27, x0
  4032dc:	b4000580 	cbz	x0, 40338c <_nl_load_domain+0x78c>
  4032e0:	d0000476 	adrp	x22, 491000 <tunable_list+0x528>
  4032e4:	f946f2d6 	ldr	x22, [x22, #3552]
  4032e8:	b90063fa 	str	w26, [sp, #96]
  4032ec:	2a1803fa 	mov	w26, w24
  4032f0:	aa1c03f8 	mov	x24, x28
  4032f4:	f90037f9 	str	x25, [sp, #104]
  4032f8:	aa0003f9 	mov	x25, x0
  4032fc:	aa1803e2 	mov	x2, x24
  403300:	aa1903e1 	mov	x1, x25
  403304:	2a1a03e0 	mov	w0, w26
  403308:	940060da 	bl	41b670 <__read_nocancel>
  40330c:	f100001f 	cmp	x0, #0x0
  403310:	54ffe86d 	b.le	40301c <_nl_load_domain+0x41c>
  403314:	8b000339 	add	x25, x25, x0
  403318:	eb000318 	subs	x24, x24, x0
  40331c:	54ffff01 	b.ne	4032fc <_nl_load_domain+0x6fc>  // b.any
  403320:	2a1a03e0 	mov	w0, w26
  403324:	b94063fa 	ldr	w26, [sp, #96]
  403328:	f94037f9 	ldr	x25, [sp, #104]
  40332c:	94006025 	bl	41b3c0 <__close_nocancel>
  403330:	b9400363 	ldr	w3, [x27]
  403334:	52825bc1 	mov	w1, #0x12de                	// #4830
  403338:	72b2a081 	movk	w1, #0x9504, lsl #16
  40333c:	528092a0 	mov	w0, #0x495                 	// #1173
  403340:	6b01007f 	cmp	w3, w1
  403344:	72bbc240 	movk	w0, #0xde12, lsl #16
  403348:	1a9f07f7 	cset	w23, ne  // ne = any
  40334c:	710002ff 	cmp	w23, #0x0
  403350:	7a401064 	ccmp	w3, w0, #0x4, ne  // ne = any
  403354:	54ffcea0 	b.eq	402d28 <_nl_load_domain+0x128>  // b.none
  403358:	aa1b03e0 	mov	x0, x27
  40335c:	9400467d 	bl	414d50 <__free>
  403360:	9129a260 	add	x0, x19, #0xa68
  403364:	a94573fb 	ldp	x27, x28, [sp, #80]
  403368:	b9400402 	ldr	w2, [x0, #4]
  40336c:	51000442 	sub	w2, w2, #0x1
  403370:	17ffff37 	b	40304c <_nl_load_domain+0x44c>
  403374:	34000537 	cbz	w23, 403418 <_nl_load_domain+0x818>
  403378:	f94047e0 	ldr	x0, [sp, #136]
  40337c:	b8787802 	ldr	w2, [x0, x24, lsl #2]
  403380:	17ffff04 	b	402f90 <_nl_load_domain+0x390>
  403384:	52800037 	mov	w23, #0x1                   	// #1
  403388:	17fffefa 	b	402f70 <_nl_load_domain+0x370>
  40338c:	a94573fb 	ldp	x27, x28, [sp, #80]
  403390:	17ffff2a 	b	403038 <_nl_load_domain+0x438>
  403394:	a94be3fc 	ldp	x28, x24, [sp, #184]
  403398:	aa1a03e7 	mov	x7, x26
  40339c:	b940b3fa 	ldr	w26, [sp, #176]
  4033a0:	f9403bfb 	ldr	x27, [sp, #112]
  4033a4:	f94067f4 	ldr	x20, [sp, #200]
  4033a8:	aa0703e0 	mov	x0, x7
  4033ac:	94004669 	bl	414d50 <__free>
  4033b0:	d2800000 	mov	x0, #0x0                   	// #0
  4033b4:	17ffff6a 	b	40315c <_nl_load_domain+0x55c>
  4033b8:	d2800004 	mov	x4, #0x0                   	// #0
  4033bc:	17fffecc 	b	402eec <_nl_load_domain+0x2ec>
  4033c0:	9100105b 	add	x27, x2, #0x4
  4033c4:	d2800001 	mov	x1, #0x0                   	// #0
  4033c8:	1400000d 	b	4033fc <_nl_load_domain+0x7fc>
  4033cc:	5ac00863 	rev	w3, w3
  4033d0:	5ac00800 	rev	w0, w0
  4033d4:	8b010074 	add	x20, x3, x1
  4033d8:	3100041f 	cmn	w0, #0x1
  4033dc:	54ffde80 	b.eq	402fac <_nl_load_domain+0x3ac>  // b.none
  4033e0:	6b19001f 	cmp	w0, w25
  4033e4:	54fffd82 	b.cs	403394 <_nl_load_domain+0x794>  // b.hs, b.nlast
  4033e8:	f8605b40 	ldr	x0, [x26, w0, uxtw #3]
  4033ec:	b4ffdf60 	cbz	x0, 402fd8 <_nl_load_domain+0x3d8>
  4033f0:	97fff3c4 	bl	400300 <.plt+0x60>
  4033f4:	9100237b 	add	x27, x27, #0x8
  4033f8:	8b140001 	add	x1, x0, x20
  4033fc:	52825bc2 	mov	w2, #0x12de                	// #4830
  403400:	29400363 	ldp	w3, w0, [x27]
  403404:	72b2a082 	movk	w2, #0x9504, lsl #16
  403408:	6b0202df 	cmp	w22, w2
  40340c:	54fffe01 	b.ne	4033cc <_nl_load_domain+0x7cc>  // b.any
  403410:	8b234034 	add	x20, x1, w3, uxtw
  403414:	17fffff1 	b	4033d8 <_nl_load_domain+0x7d8>
  403418:	f94057e0 	ldr	x0, [sp, #168]
  40341c:	b8787802 	ldr	w2, [x0, x24, lsl #2]
  403420:	17fffedc 	b	402f90 <_nl_load_domain+0x390>
  403424:	f94057e0 	ldr	x0, [sp, #168]
  403428:	b8787802 	ldr	w2, [x0, x24, lsl #2]
  40342c:	17fffed8 	b	402f8c <_nl_load_domain+0x38c>
  403430:	f9401300 	ldr	x0, [x24, #32]
  403434:	17ffff4a 	b	40315c <_nl_load_domain+0x55c>
  403438:	8b214361 	add	x1, x27, w1, uxtw
  40343c:	2a0003e0 	mov	w0, w0
  403440:	f90057e1 	str	x1, [sp, #168]
  403444:	17fffeb7 	b	402f20 <_nl_load_domain+0x320>
  403448:	7100d89f 	cmp	w4, #0x36
  40344c:	54000261 	b.ne	403498 <_nl_load_domain+0x898>  // b.any
  403450:	39401430 	ldrb	w16, [x1, #5]
  403454:	d2800004 	mov	x4, #0x0                   	// #0
  403458:	7100d21f 	cmp	w16, #0x34
  40345c:	54ffd481 	b.ne	402eec <_nl_load_domain+0x2ec>  // b.any
  403460:	39401821 	ldrb	w1, [x1, #6]
  403464:	35ffd441 	cbnz	w1, 402eec <_nl_load_domain+0x2ec>
  403468:	7101917f 	cmp	w11, #0x64
  40346c:	54003540 	b.eq	403b14 <_nl_load_domain+0xf14>  // b.none
  403470:	b94093e1 	ldr	w1, [sp, #144]
  403474:	350045a1 	cbnz	w1, 403d28 <_nl_load_domain+0x1128>
  403478:	7101bd7f 	cmp	w11, #0x6f
  40347c:	54003700 	b.eq	403b5c <_nl_load_domain+0xf5c>  // b.none
  403480:	7101d57f 	cmp	w11, #0x75
  403484:	54003680 	b.eq	403b54 <_nl_load_domain+0xf54>  // b.none
  403488:	f9403be1 	ldr	x1, [sp, #112]
  40348c:	7101e17f 	cmp	w11, #0x78
  403490:	9a8102e4 	csel	x4, x23, x1, eq  // eq = none
  403494:	17fffe96 	b	402eec <_nl_load_domain+0x2ec>
  403498:	7101309f 	cmp	w4, #0x4c
  40349c:	54000341 	b.ne	403504 <_nl_load_domain+0x904>  // b.any
  4034a0:	39401430 	ldrb	w16, [x1, #5]
  4034a4:	d2800004 	mov	x4, #0x0                   	// #0
  4034a8:	7101161f 	cmp	w16, #0x45
  4034ac:	54ffd201 	b.ne	402eec <_nl_load_domain+0x2ec>  // b.any
  4034b0:	39401830 	ldrb	w16, [x1, #6]
  4034b4:	7101061f 	cmp	w16, #0x41
  4034b8:	54ffd1a1 	b.ne	402eec <_nl_load_domain+0x2ec>  // b.any
  4034bc:	39401c30 	ldrb	w16, [x1, #7]
  4034c0:	71014e1f 	cmp	w16, #0x53
  4034c4:	54ffd141 	b.ne	402eec <_nl_load_domain+0x2ec>  // b.any
  4034c8:	39402030 	ldrb	w16, [x1, #8]
  4034cc:	7101521f 	cmp	w16, #0x54
  4034d0:	54ffd0e1 	b.ne	402eec <_nl_load_domain+0x2ec>  // b.any
  4034d4:	39402424 	ldrb	w4, [x1, #9]
  4034d8:	7100e09f 	cmp	w4, #0x38
  4034dc:	54003c20 	b.eq	403c60 <_nl_load_domain+0x1060>  // b.none
  4034e0:	7100c49f 	cmp	w4, #0x31
  4034e4:	54003b40 	b.eq	403c4c <_nl_load_domain+0x104c>  // b.none
  4034e8:	7100cc9f 	cmp	w4, #0x33
  4034ec:	540035a1 	b.ne	403ba0 <_nl_load_domain+0xfa0>  // b.any
  4034f0:	39402824 	ldrb	w4, [x1, #10]
  4034f4:	7100c89f 	cmp	w4, #0x32
  4034f8:	54003360 	b.eq	403b64 <_nl_load_domain+0xf64>  // b.none
  4034fc:	d2800004 	mov	x4, #0x0                   	// #0
  403500:	17fffe7b 	b	402eec <_nl_load_domain+0x2ec>
  403504:	7101189f 	cmp	w4, #0x46
  403508:	540002e1 	b.ne	403564 <_nl_load_domain+0x964>  // b.any
  40350c:	39401430 	ldrb	w16, [x1, #5]
  403510:	d2800004 	mov	x4, #0x0                   	// #0
  403514:	7101061f 	cmp	w16, #0x41
  403518:	54ffcea1 	b.ne	402eec <_nl_load_domain+0x2ec>  // b.any
  40351c:	39401830 	ldrb	w16, [x1, #6]
  403520:	71014e1f 	cmp	w16, #0x53
  403524:	54ffce41 	b.ne	402eec <_nl_load_domain+0x2ec>  // b.any
  403528:	39401c30 	ldrb	w16, [x1, #7]
  40352c:	7101521f 	cmp	w16, #0x54
  403530:	54ffcde1 	b.ne	402eec <_nl_load_domain+0x2ec>  // b.any
  403534:	39402024 	ldrb	w4, [x1, #8]
  403538:	7100e09f 	cmp	w4, #0x38
  40353c:	54004560 	b.eq	403de8 <_nl_load_domain+0x11e8>  // b.none
  403540:	7100c49f 	cmp	w4, #0x31
  403544:	54004480 	b.eq	403dd4 <_nl_load_domain+0x11d4>  // b.none
  403548:	7100cc9f 	cmp	w4, #0x33
  40354c:	54004361 	b.ne	403db8 <_nl_load_domain+0x11b8>  // b.any
  403550:	39402424 	ldrb	w4, [x1, #9]
  403554:	7100c89f 	cmp	w4, #0x32
  403558:	54004140 	b.eq	403d80 <_nl_load_domain+0x1180>  // b.none
  40355c:	d2800004 	mov	x4, #0x0                   	// #0
  403560:	17fffe63 	b	402eec <_nl_load_domain+0x2ec>
  403564:	7101349f 	cmp	w4, #0x4d
  403568:	54000741 	b.ne	403650 <_nl_load_domain+0xa50>  // b.any
  40356c:	39401430 	ldrb	w16, [x1, #5]
  403570:	d2800004 	mov	x4, #0x0                   	// #0
  403574:	7101061f 	cmp	w16, #0x41
  403578:	54ffcba1 	b.ne	402eec <_nl_load_domain+0x2ec>  // b.any
  40357c:	39401830 	ldrb	w16, [x1, #6]
  403580:	7101621f 	cmp	w16, #0x58
  403584:	54ffcb41 	b.ne	402eec <_nl_load_domain+0x2ec>  // b.any
  403588:	39401c21 	ldrb	w1, [x1, #7]
  40358c:	35002d41 	cbnz	w1, 403b34 <_nl_load_domain+0xf34>
  403590:	7101917f 	cmp	w11, #0x64
  403594:	54003d60 	b.eq	403d40 <_nl_load_domain+0x1140>  // b.none
  403598:	b94093e1 	ldr	w1, [sp, #144]
  40359c:	35003ce1 	cbnz	w1, 403d38 <_nl_load_domain+0x1138>
  4035a0:	7101bd7f 	cmp	w11, #0x6f
  4035a4:	54003d60 	b.eq	403d50 <_nl_load_domain+0x1150>  // b.none
  4035a8:	7101d57f 	cmp	w11, #0x75
  4035ac:	54003ce0 	b.eq	403d48 <_nl_load_domain+0x1148>  // b.none
  4035b0:	f9403be1 	ldr	x1, [sp, #112]
  4035b4:	7101e17f 	cmp	w11, #0x78
  4035b8:	9a971024 	csel	x4, x1, x23, ne  // ne = any
  4035bc:	17fffe4c 	b	402eec <_nl_load_domain+0x2ec>
  4035c0:	39401421 	ldrb	w1, [x1, #5]
  4035c4:	d2800004 	mov	x4, #0x0                   	// #0
  4035c8:	35ffc921 	cbnz	w1, 402eec <_nl_load_domain+0x2ec>
  4035cc:	f94047e4 	ldr	x4, [sp, #136]
  4035d0:	7101917f 	cmp	w11, #0x64
  4035d4:	54ffc8c0 	b.eq	402eec <_nl_load_domain+0x2ec>  // b.none
  4035d8:	b94093e1 	ldr	w1, [sp, #144]
  4035dc:	35002701 	cbnz	w1, 403abc <_nl_load_domain+0xebc>
  4035e0:	7101bd7f 	cmp	w11, #0x6f
  4035e4:	54002680 	b.eq	403ab4 <_nl_load_domain+0xeb4>  // b.none
  4035e8:	7101d57f 	cmp	w11, #0x75
  4035ec:	54002a00 	b.eq	403b2c <_nl_load_domain+0xf2c>  // b.none
  4035f0:	7101e17f 	cmp	w11, #0x78
  4035f4:	b00002a4 	adrp	x4, 458000 <free_modules_db+0x40>
  4035f8:	912a0084 	add	x4, x4, #0xa80
  4035fc:	9a8413c4 	csel	x4, x30, x4, ne  // ne = any
  403600:	17fffe3b 	b	402eec <_nl_load_domain+0x2ec>
  403604:	39401430 	ldrb	w16, [x1, #5]
  403608:	d2800004 	mov	x4, #0x0                   	// #0
  40360c:	7100da1f 	cmp	w16, #0x36
  403610:	54ffc6e1 	b.ne	402eec <_nl_load_domain+0x2ec>  // b.any
  403614:	39401821 	ldrb	w1, [x1, #6]
  403618:	35ffc6a1 	cbnz	w1, 402eec <_nl_load_domain+0x2ec>
  40361c:	7101917f 	cmp	w11, #0x64
  403620:	54002720 	b.eq	403b04 <_nl_load_domain+0xf04>  // b.none
  403624:	b94093e1 	ldr	w1, [sp, #144]
  403628:	350026a1 	cbnz	w1, 403afc <_nl_load_domain+0xefc>
  40362c:	7101bd7f 	cmp	w11, #0x6f
  403630:	540028e0 	b.eq	403b4c <_nl_load_domain+0xf4c>  // b.none
  403634:	7101d57f 	cmp	w11, #0x75
  403638:	54002860 	b.eq	403b44 <_nl_load_domain+0xf44>  // b.none
  40363c:	7101e17f 	cmp	w11, #0x78
  403640:	b00002a4 	adrp	x4, 458000 <free_modules_db+0x40>
  403644:	912a0084 	add	x4, x4, #0xa80
  403648:	9a8413c4 	csel	x4, x30, x4, ne  // ne = any
  40364c:	17fffe28 	b	402eec <_nl_load_domain+0x2ec>
  403650:	7101409f 	cmp	w4, #0x50
  403654:	540036e1 	b.ne	403d30 <_nl_load_domain+0x1130>  // b.any
  403658:	39401430 	ldrb	w16, [x1, #5]
  40365c:	d2800004 	mov	x4, #0x0                   	// #0
  403660:	7101521f 	cmp	w16, #0x54
  403664:	54ffc441 	b.ne	402eec <_nl_load_domain+0x2ec>  // b.any
  403668:	39401824 	ldrb	w4, [x1, #6]
  40366c:	7101489f 	cmp	w4, #0x52
  403670:	540022a0 	b.eq	403ac4 <_nl_load_domain+0xec4>  // b.none
  403674:	d2800004 	mov	x4, #0x0                   	// #0
  403678:	17fffe1d 	b	402eec <_nl_load_domain+0x2ec>
  40367c:	f94053e1 	ldr	x1, [sp, #160]
  403680:	aa0003f6 	mov	x22, x0
  403684:	531f7800 	lsl	w0, w0, #1
  403688:	b90073e3 	str	w3, [sp, #112]
  40368c:	f9003fe7 	str	x7, [sp, #120]
  403690:	8b205020 	add	x0, x1, w0, uxtw #4
  403694:	9400444f 	bl	4147d0 <__libc_malloc>
  403698:	f90053e0 	str	x0, [sp, #160]
  40369c:	b4ffd5e0 	cbz	x0, 403158 <_nl_load_domain+0x558>
  4036a0:	d37c7ec4 	ubfiz	x4, x22, #4, #32
  4036a4:	b94073e3 	ldr	w3, [sp, #112]
  4036a8:	8b040001 	add	x1, x0, x4
  4036ac:	f9005be1 	str	x1, [sp, #176]
  4036b0:	f9406fe1 	ldr	x1, [sp, #216]
  4036b4:	8b040404 	add	x4, x0, x4, lsl #1
  4036b8:	f9403fe7 	ldr	x7, [sp, #120]
  4036bc:	8b010097 	add	x23, x4, x1
  4036c0:	f9001300 	str	x0, [x24, #32]
  4036c4:	aa1b03e0 	mov	x0, x27
  4036c8:	f9006bfc 	str	x28, [sp, #208]
  4036cc:	aa1703fb 	mov	x27, x23
  4036d0:	f94047fc 	ldr	x28, [sp, #136]
  4036d4:	d2800009 	mov	x9, #0x0                   	// #0
  4036d8:	52825bc8 	mov	w8, #0x12de                	// #4830
  4036dc:	aa0003f7 	mov	x23, x0
  4036e0:	b900cbfa 	str	w26, [sp, #200]
  4036e4:	aa0703fa 	mov	x26, x7
  4036e8:	f9006ff8 	str	x24, [sp, #216]
  4036ec:	aa0903f8 	mov	x24, x9
  4036f0:	f9007bf9 	str	x25, [sp, #240]
  4036f4:	2a0303f9 	mov	w25, w3
  4036f8:	72b2a088 	movk	w8, #0x9504, lsl #16
  4036fc:	b90093ff 	str	wzr, [sp, #144]
  403700:	a90e53e4 	stp	x4, x20, [sp, #224]
  403704:	52800006 	mov	w6, #0x0                   	// #0
  403708:	6b08033f 	cmp	w25, w8
  40370c:	54000580 	b.eq	4037bc <_nl_load_domain+0xbbc>  // b.none
  403710:	34001266 	cbz	w6, 40395c <_nl_load_domain+0xd5c>
  403714:	b8787b81 	ldr	w1, [x28, x24, lsl #2]
  403718:	5ac00821 	rev	w1, w1
  40371c:	8b0102e1 	add	x1, x23, x1
  403720:	b9400820 	ldr	w0, [x1, #8]
  403724:	3100041f 	cmn	w0, #0x1
  403728:	54000561 	b.ne	4037d4 <_nl_load_domain+0xbd4>  // b.any
  40372c:	34001266 	cbz	w6, 403978 <_nl_load_domain+0xd78>
  403730:	f9404be0 	ldr	x0, [sp, #144]
  403734:	f90047fc 	str	x28, [sp, #136]
  403738:	aa1b03fc 	mov	x28, x27
  40373c:	b9007bff 	str	wzr, [sp, #120]
  403740:	d37c7c14 	ubfiz	x20, x0, #4, #32
  403744:	f9405be0 	ldr	x0, [sp, #176]
  403748:	8b140000 	add	x0, x0, x20
  40374c:	f90063e0 	str	x0, [sp, #192]
  403750:	f94053e0 	ldr	x0, [sp, #160]
  403754:	8b140000 	add	x0, x0, x20
  403758:	f9005fe0 	str	x0, [sp, #184]
  40375c:	b9407be0 	ldr	w0, [sp, #120]
  403760:	6b08033f 	cmp	w25, w8
  403764:	540011e0 	b.eq	4039a0 <_nl_load_domain+0xda0>  // b.none
  403768:	34001820 	cbz	w0, 403a6c <_nl_load_domain+0xe6c>
  40376c:	f94047e0 	ldr	x0, [sp, #136]
  403770:	f94063f6 	ldr	x22, [sp, #192]
  403774:	b8787800 	ldr	w0, [x0, x24, lsl #2]
  403778:	5ac00801 	rev	w1, w0
  40377c:	5ac00800 	rev	w0, w0
  403780:	8b0002e0 	add	x0, x23, x0
  403784:	b8614af4 	ldr	w20, [x23, w1, uxtw]
  403788:	5ac00a94 	rev	w20, w20
  40378c:	8b1402f4 	add	x20, x23, x20
  403790:	b9400801 	ldr	w1, [x0, #8]
  403794:	3100043f 	cmn	w1, #0x1
  403798:	540011c1 	b.ne	4039d0 <_nl_load_domain+0xdd0>  // b.any
  40379c:	b9400400 	ldr	w0, [x0, #4]
  4037a0:	5ac00800 	rev	w0, w0
  4037a4:	a90052c0 	stp	x0, x20, [x22]
  4037a8:	b9407be0 	ldr	w0, [sp, #120]
  4037ac:	350002c0 	cbnz	w0, 403804 <_nl_load_domain+0xc04>
  4037b0:	52800020 	mov	w0, #0x1                   	// #1
  4037b4:	b9007be0 	str	w0, [sp, #120]
  4037b8:	17ffffe9 	b	40375c <_nl_load_domain+0xb5c>
  4037bc:	34000e26 	cbz	w6, 403980 <_nl_load_domain+0xd80>
  4037c0:	b8787b81 	ldr	w1, [x28, x24, lsl #2]
  4037c4:	8b0102e1 	add	x1, x23, x1
  4037c8:	b9400820 	ldr	w0, [x1, #8]
  4037cc:	3100041f 	cmn	w0, #0x1
  4037d0:	54fffae0 	b.eq	40372c <_nl_load_domain+0xb2c>  // b.none
  4037d4:	91001021 	add	x1, x1, #0x4
  4037d8:	14000005 	b	4037ec <_nl_load_domain+0xbec>
  4037dc:	f8605b40 	ldr	x0, [x26, w0, uxtw #3]
  4037e0:	b40001c0 	cbz	x0, 403818 <_nl_load_domain+0xc18>
  4037e4:	b9400c20 	ldr	w0, [x1, #12]
  4037e8:	91002021 	add	x1, x1, #0x8
  4037ec:	6b08033f 	cmp	w25, w8
  4037f0:	5ac00802 	rev	w2, w0
  4037f4:	1a801040 	csel	w0, w2, w0, ne  // ne = any
  4037f8:	3100041f 	cmn	w0, #0x1
  4037fc:	54ffff01 	b.ne	4037dc <_nl_load_domain+0xbdc>  // b.any
  403800:	17ffffcb 	b	40372c <_nl_load_domain+0xb2c>
  403804:	b94093e0 	ldr	w0, [sp, #144]
  403808:	aa1c03fb 	mov	x27, x28
  40380c:	f94047fc 	ldr	x28, [sp, #136]
  403810:	11000400 	add	w0, w0, #0x1
  403814:	b90093e0 	str	w0, [sp, #144]
  403818:	b9406be0 	ldr	w0, [sp, #104]
  40381c:	91000718 	add	x24, x24, #0x1
  403820:	6b18001f 	cmp	w0, w24
  403824:	54fff708 	b.hi	403704 <_nl_load_domain+0xb04>  // b.pmore
  403828:	b94093e2 	ldr	w2, [sp, #144]
  40382c:	2a1903e3 	mov	w3, w25
  403830:	b9409fe1 	ldr	w1, [sp, #156]
  403834:	aa1a03e7 	mov	x7, x26
  403838:	aa1703fb 	mov	x27, x23
  40383c:	b940cbfa 	ldr	w26, [sp, #200]
  403840:	d2800000 	mov	x0, #0x0                   	// #0
  403844:	a94d63fc 	ldp	x28, x24, [sp, #208]
  403848:	a94e53e4 	ldp	x4, x20, [sp, #224]
  40384c:	f9407bf9 	ldr	x25, [sp, #240]
  403850:	6b02003f 	cmp	w1, w2
  403854:	54003741 	b.ne	403f3c <_nl_load_domain+0x133c>  // b.any
  403858:	b94063e6 	ldr	w6, [sp, #96]
  40385c:	52825bc8 	mov	w8, #0x12de                	// #4830
  403860:	f94043e5 	ldr	x5, [sp, #128]
  403864:	72b2a088 	movk	w8, #0x9504, lsl #16
  403868:	b86078a1 	ldr	w1, [x5, x0, lsl #2]
  40386c:	6b08007f 	cmp	w3, w8
  403870:	5ac00822 	rev	w2, w1
  403874:	1a811041 	csel	w1, w2, w1, ne  // ne = any
  403878:	b8207881 	str	w1, [x4, x0, lsl #2]
  40387c:	91000400 	add	x0, x0, #0x1
  403880:	6b0000df 	cmp	w6, w0
  403884:	54ffff28 	b.hi	403868 <_nl_load_domain+0xc68>  // b.pmore
  403888:	f94053e0 	ldr	x0, [sp, #160]
  40388c:	52800016 	mov	w22, #0x0                   	// #0
  403890:	a90653e7 	stp	x7, x20, [sp, #96]
  403894:	91002017 	add	x23, x0, #0x8
  403898:	b9409ff4 	ldr	w20, [sp, #156]
  40389c:	f9003bf9 	str	x25, [sp, #112]
  4038a0:	aa1703f9 	mov	x25, x23
  4038a4:	2a1603f7 	mov	w23, w22
  4038a8:	aa1803f6 	mov	x22, x24
  4038ac:	aa0403f8 	mov	x24, x4
  4038b0:	f9400320 	ldr	x0, [x25]
  4038b4:	9400080b 	bl	4058e0 <__hash_string>
  4038b8:	b9405ac4 	ldr	w4, [x22, #88]
  4038bc:	51000882 	sub	w2, w4, #0x2
  4038c0:	1ac40801 	udiv	w1, w0, w4
  4038c4:	1ac20803 	udiv	w3, w0, w2
  4038c8:	1b048021 	msub	w1, w1, w4, w0
  4038cc:	1b028063 	msub	w3, w3, w2, w0
  4038d0:	8b214b02 	add	x2, x24, w1, uxtw #2
  4038d4:	b8615b00 	ldr	w0, [x24, w1, uxtw #2]
  4038d8:	11000463 	add	w3, w3, #0x1
  4038dc:	4b030085 	sub	w5, w4, w3
  4038e0:	4b040064 	sub	w4, w3, w4
  4038e4:	34000120 	cbz	w0, 403908 <_nl_load_domain+0xd08>
  4038e8:	0b040022 	add	w2, w1, w4
  4038ec:	6b05003f 	cmp	w1, w5
  4038f0:	0b030021 	add	w1, w1, w3
  4038f4:	1a823020 	csel	w0, w1, w2, cc  // cc = lo, ul, last
  4038f8:	1a823021 	csel	w1, w1, w2, cc  // cc = lo, ul, last
  4038fc:	8b000b02 	add	x2, x24, x0, lsl #2
  403900:	b8607b00 	ldr	w0, [x24, x0, lsl #2]
  403904:	35ffff20 	cbnz	w0, 4038e8 <_nl_load_domain+0xce8>
  403908:	b9402ac0 	ldr	w0, [x22, #40]
  40390c:	91004339 	add	x25, x25, #0x10
  403910:	11000400 	add	w0, w0, #0x1
  403914:	0b170000 	add	w0, w0, w23
  403918:	110006f7 	add	w23, w23, #0x1
  40391c:	b9000040 	str	w0, [x2]
  403920:	6b17029f 	cmp	w20, w23
  403924:	54fffc61 	b.ne	4038b0 <_nl_load_domain+0xcb0>  // b.any
  403928:	b9409fe0 	ldr	w0, [sp, #156]
  40392c:	aa1803e4 	mov	x4, x24
  403930:	b90042c0 	str	w0, [x22, #64]
  403934:	aa1603f8 	mov	x24, x22
  403938:	f94053e0 	ldr	x0, [sp, #160]
  40393c:	f90026c0 	str	x0, [x22, #72]
  403940:	f9405be0 	ldr	x0, [sp, #176]
  403944:	f9002ac0 	str	x0, [x22, #80]
  403948:	f90032c4 	str	x4, [x22, #96]
  40394c:	b9006adf 	str	wzr, [x22, #104]
  403950:	a94653e7 	ldp	x7, x20, [sp, #96]
  403954:	f9403bf9 	ldr	x25, [sp, #112]
  403958:	17fffdae 	b	403010 <_nl_load_domain+0x410>
  40395c:	f94057e0 	ldr	x0, [sp, #168]
  403960:	b8787801 	ldr	w1, [x0, x24, lsl #2]
  403964:	5ac00821 	rev	w1, w1
  403968:	8b0102e1 	add	x1, x23, x1
  40396c:	b9400820 	ldr	w0, [x1, #8]
  403970:	3100041f 	cmn	w0, #0x1
  403974:	54fff301 	b.ne	4037d4 <_nl_load_domain+0xbd4>  // b.any
  403978:	52800026 	mov	w6, #0x1                   	// #1
  40397c:	17ffff63 	b	403708 <_nl_load_domain+0xb08>
  403980:	f94057e0 	ldr	x0, [sp, #168]
  403984:	b8787801 	ldr	w1, [x0, x24, lsl #2]
  403988:	8b0102e1 	add	x1, x23, x1
  40398c:	b9400820 	ldr	w0, [x1, #8]
  403990:	3100041f 	cmn	w0, #0x1
  403994:	54fff201 	b.ne	4037d4 <_nl_load_domain+0xbd4>  // b.any
  403998:	52800026 	mov	w6, #0x1                   	// #1
  40399c:	17ffff5b 	b	403708 <_nl_load_domain+0xb08>
  4039a0:	34000780 	cbz	w0, 403a90 <_nl_load_domain+0xe90>
  4039a4:	f94047e0 	ldr	x0, [sp, #136]
  4039a8:	f94063f6 	ldr	x22, [sp, #192]
  4039ac:	b8787801 	ldr	w1, [x0, x24, lsl #2]
  4039b0:	8b0102e0 	add	x0, x23, x1
  4039b4:	b8616af4 	ldr	w20, [x23, x1]
  4039b8:	8b1402f4 	add	x20, x23, x20
  4039bc:	b9400801 	ldr	w1, [x0, #8]
  4039c0:	3100043f 	cmn	w1, #0x1
  4039c4:	54000061 	b.ne	4039d0 <_nl_load_domain+0xdd0>  // b.any
  4039c8:	b9400400 	ldr	w0, [x0, #4]
  4039cc:	17ffff76 	b	4037a4 <_nl_load_domain+0xba4>
  4039d0:	9100101b 	add	x27, x0, #0x4
  4039d4:	f90006dc 	str	x28, [x22, #8]
  4039d8:	f9007ff6 	str	x22, [sp, #248]
  4039dc:	aa1c03f6 	mov	x22, x28
  4039e0:	29407360 	ldp	w0, w28, [x27]
  4039e4:	6b08033f 	cmp	w25, w8
  4039e8:	54000060 	b.eq	4039f4 <_nl_load_domain+0xdf4>  // b.none
  4039ec:	5ac00800 	rev	w0, w0
  4039f0:	5ac00b9c 	rev	w28, w28
  4039f4:	350001e0 	cbnz	w0, 403a30 <_nl_load_domain+0xe30>
  4039f8:	3100079f 	cmn	w28, #0x1
  4039fc:	540002c0 	b.eq	403a54 <_nl_load_domain+0xe54>  // b.none
  403a00:	f87c5b5c 	ldr	x28, [x26, w28, uxtw #3]
  403a04:	b90073e8 	str	w8, [sp, #112]
  403a08:	9100237b 	add	x27, x27, #0x8
  403a0c:	aa1c03e0 	mov	x0, x28
  403a10:	97fff23c 	bl	400300 <.plt+0x60>
  403a14:	aa0003e2 	mov	x2, x0
  403a18:	aa1c03e1 	mov	x1, x28
  403a1c:	aa1603e0 	mov	x0, x22
  403a20:	8b0202d6 	add	x22, x22, x2
  403a24:	97fff223 	bl	4002b0 <.plt+0x10>
  403a28:	b94073e8 	ldr	w8, [sp, #112]
  403a2c:	17ffffed 	b	4039e0 <_nl_load_domain+0xde0>
  403a30:	2a0003e2 	mov	w2, w0
  403a34:	aa1403e1 	mov	x1, x20
  403a38:	aa1603e0 	mov	x0, x22
  403a3c:	8b020294 	add	x20, x20, x2
  403a40:	8b0202d6 	add	x22, x22, x2
  403a44:	b90073e8 	str	w8, [sp, #112]
  403a48:	97fff21a 	bl	4002b0 <.plt+0x10>
  403a4c:	b94073e8 	ldr	w8, [sp, #112]
  403a50:	17ffffea 	b	4039f8 <_nl_load_domain+0xdf8>
  403a54:	aa1603fc 	mov	x28, x22
  403a58:	f9407ff6 	ldr	x22, [sp, #248]
  403a5c:	f94006c0 	ldr	x0, [x22, #8]
  403a60:	cb000380 	sub	x0, x28, x0
  403a64:	f90002c0 	str	x0, [x22]
  403a68:	17ffff50 	b	4037a8 <_nl_load_domain+0xba8>
  403a6c:	f94057e0 	ldr	x0, [sp, #168]
  403a70:	f9405ff6 	ldr	x22, [sp, #184]
  403a74:	b8787801 	ldr	w1, [x0, x24, lsl #2]
  403a78:	5ac00821 	rev	w1, w1
  403a7c:	8b0102e0 	add	x0, x23, x1
  403a80:	b8616af4 	ldr	w20, [x23, x1]
  403a84:	5ac00a94 	rev	w20, w20
  403a88:	8b1402f4 	add	x20, x23, x20
  403a8c:	17ffff41 	b	403790 <_nl_load_domain+0xb90>
  403a90:	f94057e0 	ldr	x0, [sp, #168]
  403a94:	f9405ff6 	ldr	x22, [sp, #184]
  403a98:	b8787801 	ldr	w1, [x0, x24, lsl #2]
  403a9c:	8b0102e0 	add	x0, x23, x1
  403aa0:	b8616af4 	ldr	w20, [x23, x1]
  403aa4:	8b1402f4 	add	x20, x23, x20
  403aa8:	17ffffc5 	b	4039bc <_nl_load_domain+0xdbc>
  403aac:	a90573fb 	stp	x27, x28, [sp, #80]
  403ab0:	94006620 	bl	41d330 <__stack_chk_fail>
  403ab4:	aa0603e4 	mov	x4, x6
  403ab8:	17fffd0d 	b	402eec <_nl_load_domain+0x2ec>
  403abc:	aa1203e4 	mov	x4, x18
  403ac0:	17fffd0b 	b	402eec <_nl_load_domain+0x2ec>
  403ac4:	39401c21 	ldrb	w1, [x1, #7]
  403ac8:	35000221 	cbnz	w1, 403b0c <_nl_load_domain+0xf0c>
  403acc:	7101917f 	cmp	w11, #0x64
  403ad0:	540014c0 	b.eq	403d68 <_nl_load_domain+0x1168>  // b.none
  403ad4:	b94093e1 	ldr	w1, [sp, #144]
  403ad8:	35001501 	cbnz	w1, 403d78 <_nl_load_domain+0x1178>
  403adc:	7101bd7f 	cmp	w11, #0x6f
  403ae0:	54001480 	b.eq	403d70 <_nl_load_domain+0x1170>  // b.none
  403ae4:	7101d57f 	cmp	w11, #0x75
  403ae8:	540013c0 	b.eq	403d60 <_nl_load_domain+0x1160>  // b.none
  403aec:	f9403be1 	ldr	x1, [sp, #112]
  403af0:	7101e17f 	cmp	w11, #0x78
  403af4:	9a971024 	csel	x4, x1, x23, ne  // ne = any
  403af8:	17fffcfd 	b	402eec <_nl_load_domain+0x2ec>
  403afc:	aa1203e4 	mov	x4, x18
  403b00:	17fffcfb 	b	402eec <_nl_load_domain+0x2ec>
  403b04:	f94047e4 	ldr	x4, [sp, #136]
  403b08:	17fffcf9 	b	402eec <_nl_load_domain+0x2ec>
  403b0c:	d2800004 	mov	x4, #0x0                   	// #0
  403b10:	17fffcf7 	b	402eec <_nl_load_domain+0x2ec>
  403b14:	aa0f03e4 	mov	x4, x15
  403b18:	17fffcf5 	b	402eec <_nl_load_domain+0x2ec>
  403b1c:	f94047e4 	ldr	x4, [sp, #136]
  403b20:	17fffcf3 	b	402eec <_nl_load_domain+0x2ec>
  403b24:	aa1203e4 	mov	x4, x18
  403b28:	17fffcf1 	b	402eec <_nl_load_domain+0x2ec>
  403b2c:	aa0503e4 	mov	x4, x5
  403b30:	17fffcef 	b	402eec <_nl_load_domain+0x2ec>
  403b34:	d2800004 	mov	x4, #0x0                   	// #0
  403b38:	17fffced 	b	402eec <_nl_load_domain+0x2ec>
  403b3c:	aa0603e4 	mov	x4, x6
  403b40:	17fffceb 	b	402eec <_nl_load_domain+0x2ec>
  403b44:	aa0503e4 	mov	x4, x5
  403b48:	17fffce9 	b	402eec <_nl_load_domain+0x2ec>
  403b4c:	aa0603e4 	mov	x4, x6
  403b50:	17fffce7 	b	402eec <_nl_load_domain+0x2ec>
  403b54:	aa0c03e4 	mov	x4, x12
  403b58:	17fffce5 	b	402eec <_nl_load_domain+0x2ec>
  403b5c:	aa0d03e4 	mov	x4, x13
  403b60:	17fffce3 	b	402eec <_nl_load_domain+0x2ec>
  403b64:	39402c21 	ldrb	w1, [x1, #11]
  403b68:	350006e1 	cbnz	w1, 403c44 <_nl_load_domain+0x1044>
  403b6c:	7101917f 	cmp	w11, #0x64
  403b70:	54000660 	b.eq	403c3c <_nl_load_domain+0x103c>  // b.none
  403b74:	b94093e1 	ldr	w1, [sp, #144]
  403b78:	350005e1 	cbnz	w1, 403c34 <_nl_load_domain+0x1034>
  403b7c:	7101bd7f 	cmp	w11, #0x6f
  403b80:	54000560 	b.eq	403c2c <_nl_load_domain+0x102c>  // b.none
  403b84:	7101d57f 	cmp	w11, #0x75
  403b88:	540001a0 	b.eq	403bbc <_nl_load_domain+0xfbc>  // b.none
  403b8c:	7101e17f 	cmp	w11, #0x78
  403b90:	b00002a4 	adrp	x4, 458000 <free_modules_db+0x40>
  403b94:	912a0084 	add	x4, x4, #0xa80
  403b98:	9a8413c4 	csel	x4, x30, x4, ne  // ne = any
  403b9c:	17fffcd4 	b	402eec <_nl_load_domain+0x2ec>
  403ba0:	7100d89f 	cmp	w4, #0x36
  403ba4:	540002c1 	b.ne	403bfc <_nl_load_domain+0xffc>  // b.any
  403ba8:	39402824 	ldrb	w4, [x1, #10]
  403bac:	7100d09f 	cmp	w4, #0x34
  403bb0:	540000a0 	b.eq	403bc4 <_nl_load_domain+0xfc4>  // b.none
  403bb4:	d2800004 	mov	x4, #0x0                   	// #0
  403bb8:	17fffccd 	b	402eec <_nl_load_domain+0x2ec>
  403bbc:	aa0503e4 	mov	x4, x5
  403bc0:	17fffccb 	b	402eec <_nl_load_domain+0x2ec>
  403bc4:	39402c21 	ldrb	w1, [x1, #11]
  403bc8:	350002e1 	cbnz	w1, 403c24 <_nl_load_domain+0x1024>
  403bcc:	7101917f 	cmp	w11, #0x64
  403bd0:	54000260 	b.eq	403c1c <_nl_load_domain+0x101c>  // b.none
  403bd4:	b94093e1 	ldr	w1, [sp, #144]
  403bd8:	350001e1 	cbnz	w1, 403c14 <_nl_load_domain+0x1014>
  403bdc:	7101bd7f 	cmp	w11, #0x6f
  403be0:	54000160 	b.eq	403c0c <_nl_load_domain+0x100c>  // b.none
  403be4:	7101d57f 	cmp	w11, #0x75
  403be8:	540000e0 	b.eq	403c04 <_nl_load_domain+0x1004>  // b.none
  403bec:	f9403be1 	ldr	x1, [sp, #112]
  403bf0:	7101e17f 	cmp	w11, #0x78
  403bf4:	9a8102e4 	csel	x4, x23, x1, eq  // eq = none
  403bf8:	17fffcbd 	b	402eec <_nl_load_domain+0x2ec>
  403bfc:	d2800004 	mov	x4, #0x0                   	// #0
  403c00:	17fffcbb 	b	402eec <_nl_load_domain+0x2ec>
  403c04:	aa0c03e4 	mov	x4, x12
  403c08:	17fffcb9 	b	402eec <_nl_load_domain+0x2ec>
  403c0c:	aa0d03e4 	mov	x4, x13
  403c10:	17fffcb7 	b	402eec <_nl_load_domain+0x2ec>
  403c14:	aa0e03e4 	mov	x4, x14
  403c18:	17fffcb5 	b	402eec <_nl_load_domain+0x2ec>
  403c1c:	aa0f03e4 	mov	x4, x15
  403c20:	17fffcb3 	b	402eec <_nl_load_domain+0x2ec>
  403c24:	d2800004 	mov	x4, #0x0                   	// #0
  403c28:	17fffcb1 	b	402eec <_nl_load_domain+0x2ec>
  403c2c:	aa0603e4 	mov	x4, x6
  403c30:	17fffcaf 	b	402eec <_nl_load_domain+0x2ec>
  403c34:	aa1203e4 	mov	x4, x18
  403c38:	17fffcad 	b	402eec <_nl_load_domain+0x2ec>
  403c3c:	f94047e4 	ldr	x4, [sp, #136]
  403c40:	17fffcab 	b	402eec <_nl_load_domain+0x2ec>
  403c44:	d2800004 	mov	x4, #0x0                   	// #0
  403c48:	17fffca9 	b	402eec <_nl_load_domain+0x2ec>
  403c4c:	39402824 	ldrb	w4, [x1, #10]
  403c50:	7100d89f 	cmp	w4, #0x36
  403c54:	54000240 	b.eq	403c9c <_nl_load_domain+0x109c>  // b.none
  403c58:	d2800004 	mov	x4, #0x0                   	// #0
  403c5c:	17fffca4 	b	402eec <_nl_load_domain+0x2ec>
  403c60:	39402821 	ldrb	w1, [x1, #10]
  403c64:	350005e1 	cbnz	w1, 403d20 <_nl_load_domain+0x1120>
  403c68:	7101917f 	cmp	w11, #0x64
  403c6c:	54000560 	b.eq	403d18 <_nl_load_domain+0x1118>  // b.none
  403c70:	b94093e1 	ldr	w1, [sp, #144]
  403c74:	350004e1 	cbnz	w1, 403d10 <_nl_load_domain+0x1110>
  403c78:	7101bd7f 	cmp	w11, #0x6f
  403c7c:	54000460 	b.eq	403d08 <_nl_load_domain+0x1108>  // b.none
  403c80:	7101d57f 	cmp	w11, #0x75
  403c84:	540002a0 	b.eq	403cd8 <_nl_load_domain+0x10d8>  // b.none
  403c88:	7101e17f 	cmp	w11, #0x78
  403c8c:	b00002a4 	adrp	x4, 458000 <free_modules_db+0x40>
  403c90:	912a0084 	add	x4, x4, #0xa80
  403c94:	9a8413c4 	csel	x4, x30, x4, ne  // ne = any
  403c98:	17fffc95 	b	402eec <_nl_load_domain+0x2ec>
  403c9c:	39402c21 	ldrb	w1, [x1, #11]
  403ca0:	35000301 	cbnz	w1, 403d00 <_nl_load_domain+0x1100>
  403ca4:	7101917f 	cmp	w11, #0x64
  403ca8:	54000280 	b.eq	403cf8 <_nl_load_domain+0x10f8>  // b.none
  403cac:	b94093e1 	ldr	w1, [sp, #144]
  403cb0:	35000201 	cbnz	w1, 403cf0 <_nl_load_domain+0x10f0>
  403cb4:	7101bd7f 	cmp	w11, #0x6f
  403cb8:	54000180 	b.eq	403ce8 <_nl_load_domain+0x10e8>  // b.none
  403cbc:	7101d57f 	cmp	w11, #0x75
  403cc0:	54000100 	b.eq	403ce0 <_nl_load_domain+0x10e0>  // b.none
  403cc4:	7101e17f 	cmp	w11, #0x78
  403cc8:	b00002a4 	adrp	x4, 458000 <free_modules_db+0x40>
  403ccc:	912a0084 	add	x4, x4, #0xa80
  403cd0:	9a8413c4 	csel	x4, x30, x4, ne  // ne = any
  403cd4:	17fffc86 	b	402eec <_nl_load_domain+0x2ec>
  403cd8:	aa0503e4 	mov	x4, x5
  403cdc:	17fffc84 	b	402eec <_nl_load_domain+0x2ec>
  403ce0:	aa0503e4 	mov	x4, x5
  403ce4:	17fffc82 	b	402eec <_nl_load_domain+0x2ec>
  403ce8:	aa0603e4 	mov	x4, x6
  403cec:	17fffc80 	b	402eec <_nl_load_domain+0x2ec>
  403cf0:	aa1203e4 	mov	x4, x18
  403cf4:	17fffc7e 	b	402eec <_nl_load_domain+0x2ec>
  403cf8:	f94047e4 	ldr	x4, [sp, #136]
  403cfc:	17fffc7c 	b	402eec <_nl_load_domain+0x2ec>
  403d00:	d2800004 	mov	x4, #0x0                   	// #0
  403d04:	17fffc7a 	b	402eec <_nl_load_domain+0x2ec>
  403d08:	aa0603e4 	mov	x4, x6
  403d0c:	17fffc78 	b	402eec <_nl_load_domain+0x2ec>
  403d10:	aa1203e4 	mov	x4, x18
  403d14:	17fffc76 	b	402eec <_nl_load_domain+0x2ec>
  403d18:	f94047e4 	ldr	x4, [sp, #136]
  403d1c:	17fffc74 	b	402eec <_nl_load_domain+0x2ec>
  403d20:	d2800004 	mov	x4, #0x0                   	// #0
  403d24:	17fffc72 	b	402eec <_nl_load_domain+0x2ec>
  403d28:	aa0e03e4 	mov	x4, x14
  403d2c:	17fffc70 	b	402eec <_nl_load_domain+0x2ec>
  403d30:	d2800004 	mov	x4, #0x0                   	// #0
  403d34:	17fffc6e 	b	402eec <_nl_load_domain+0x2ec>
  403d38:	aa0e03e4 	mov	x4, x14
  403d3c:	17fffc6c 	b	402eec <_nl_load_domain+0x2ec>
  403d40:	aa0f03e4 	mov	x4, x15
  403d44:	17fffc6a 	b	402eec <_nl_load_domain+0x2ec>
  403d48:	aa0c03e4 	mov	x4, x12
  403d4c:	17fffc68 	b	402eec <_nl_load_domain+0x2ec>
  403d50:	aa0d03e4 	mov	x4, x13
  403d54:	17fffc66 	b	402eec <_nl_load_domain+0x2ec>
  403d58:	aa0503e4 	mov	x4, x5
  403d5c:	17fffc64 	b	402eec <_nl_load_domain+0x2ec>
  403d60:	aa0c03e4 	mov	x4, x12
  403d64:	17fffc62 	b	402eec <_nl_load_domain+0x2ec>
  403d68:	aa0f03e4 	mov	x4, x15
  403d6c:	17fffc60 	b	402eec <_nl_load_domain+0x2ec>
  403d70:	aa0d03e4 	mov	x4, x13
  403d74:	17fffc5e 	b	402eec <_nl_load_domain+0x2ec>
  403d78:	aa0e03e4 	mov	x4, x14
  403d7c:	17fffc5c 	b	402eec <_nl_load_domain+0x2ec>
  403d80:	39402821 	ldrb	w1, [x1, #10]
  403d84:	35000a01 	cbnz	w1, 403ec4 <_nl_load_domain+0x12c4>
  403d88:	7101917f 	cmp	w11, #0x64
  403d8c:	54000980 	b.eq	403ebc <_nl_load_domain+0x12bc>  // b.none
  403d90:	b94093e1 	ldr	w1, [sp, #144]
  403d94:	35000901 	cbnz	w1, 403eb4 <_nl_load_domain+0x12b4>
  403d98:	7101bd7f 	cmp	w11, #0x6f
  403d9c:	54000880 	b.eq	403eac <_nl_load_domain+0x12ac>  // b.none
  403da0:	7101d57f 	cmp	w11, #0x75
  403da4:	54000940 	b.eq	403ecc <_nl_load_domain+0x12cc>  // b.none
  403da8:	f9403be1 	ldr	x1, [sp, #112]
  403dac:	7101e17f 	cmp	w11, #0x78
  403db0:	9a971024 	csel	x4, x1, x23, ne  // ne = any
  403db4:	17fffc4e 	b	402eec <_nl_load_domain+0x2ec>
  403db8:	7100d89f 	cmp	w4, #0x36
  403dbc:	54000a81 	b.ne	403f0c <_nl_load_domain+0x130c>  // b.any
  403dc0:	39402424 	ldrb	w4, [x1, #9]
  403dc4:	7100d09f 	cmp	w4, #0x34
  403dc8:	54000860 	b.eq	403ed4 <_nl_load_domain+0x12d4>  // b.none
  403dcc:	d2800004 	mov	x4, #0x0                   	// #0
  403dd0:	17fffc47 	b	402eec <_nl_load_domain+0x2ec>
  403dd4:	39402424 	ldrb	w4, [x1, #9]
  403dd8:	7100d89f 	cmp	w4, #0x36
  403ddc:	54000240 	b.eq	403e24 <_nl_load_domain+0x1224>  // b.none
  403de0:	d2800004 	mov	x4, #0x0                   	// #0
  403de4:	17fffc42 	b	402eec <_nl_load_domain+0x2ec>
  403de8:	39402421 	ldrb	w1, [x1, #9]
  403dec:	350005c1 	cbnz	w1, 403ea4 <_nl_load_domain+0x12a4>
  403df0:	7101917f 	cmp	w11, #0x64
  403df4:	54000540 	b.eq	403e9c <_nl_load_domain+0x129c>  // b.none
  403df8:	b94093e1 	ldr	w1, [sp, #144]
  403dfc:	350004c1 	cbnz	w1, 403e94 <_nl_load_domain+0x1294>
  403e00:	7101bd7f 	cmp	w11, #0x6f
  403e04:	54000440 	b.eq	403e8c <_nl_load_domain+0x128c>  // b.none
  403e08:	7101d57f 	cmp	w11, #0x75
  403e0c:	54000280 	b.eq	403e5c <_nl_load_domain+0x125c>  // b.none
  403e10:	7101e17f 	cmp	w11, #0x78
  403e14:	b00002a4 	adrp	x4, 458000 <free_modules_db+0x40>
  403e18:	912a0084 	add	x4, x4, #0xa80
  403e1c:	9a9e0084 	csel	x4, x4, x30, eq  // eq = none
  403e20:	17fffc33 	b	402eec <_nl_load_domain+0x2ec>
  403e24:	39402821 	ldrb	w1, [x1, #10]
  403e28:	350002e1 	cbnz	w1, 403e84 <_nl_load_domain+0x1284>
  403e2c:	7101917f 	cmp	w11, #0x64
  403e30:	54000260 	b.eq	403e7c <_nl_load_domain+0x127c>  // b.none
  403e34:	b94093e1 	ldr	w1, [sp, #144]
  403e38:	350001e1 	cbnz	w1, 403e74 <_nl_load_domain+0x1274>
  403e3c:	7101bd7f 	cmp	w11, #0x6f
  403e40:	54000160 	b.eq	403e6c <_nl_load_domain+0x126c>  // b.none
  403e44:	7101d57f 	cmp	w11, #0x75
  403e48:	540000e0 	b.eq	403e64 <_nl_load_domain+0x1264>  // b.none
  403e4c:	f9403be1 	ldr	x1, [sp, #112]
  403e50:	7101e17f 	cmp	w11, #0x78
  403e54:	9a971024 	csel	x4, x1, x23, ne  // ne = any
  403e58:	17fffc25 	b	402eec <_nl_load_domain+0x2ec>
  403e5c:	aa0503e4 	mov	x4, x5
  403e60:	17fffc23 	b	402eec <_nl_load_domain+0x2ec>
  403e64:	aa0c03e4 	mov	x4, x12
  403e68:	17fffc21 	b	402eec <_nl_load_domain+0x2ec>
  403e6c:	aa0d03e4 	mov	x4, x13
  403e70:	17fffc1f 	b	402eec <_nl_load_domain+0x2ec>
  403e74:	aa0e03e4 	mov	x4, x14
  403e78:	17fffc1d 	b	402eec <_nl_load_domain+0x2ec>
  403e7c:	aa0f03e4 	mov	x4, x15
  403e80:	17fffc1b 	b	402eec <_nl_load_domain+0x2ec>
  403e84:	d2800004 	mov	x4, #0x0                   	// #0
  403e88:	17fffc19 	b	402eec <_nl_load_domain+0x2ec>
  403e8c:	aa0603e4 	mov	x4, x6
  403e90:	17fffc17 	b	402eec <_nl_load_domain+0x2ec>
  403e94:	aa1203e4 	mov	x4, x18
  403e98:	17fffc15 	b	402eec <_nl_load_domain+0x2ec>
  403e9c:	f94047e4 	ldr	x4, [sp, #136]
  403ea0:	17fffc13 	b	402eec <_nl_load_domain+0x2ec>
  403ea4:	d2800004 	mov	x4, #0x0                   	// #0
  403ea8:	17fffc11 	b	402eec <_nl_load_domain+0x2ec>
  403eac:	aa0d03e4 	mov	x4, x13
  403eb0:	17fffc0f 	b	402eec <_nl_load_domain+0x2ec>
  403eb4:	aa0e03e4 	mov	x4, x14
  403eb8:	17fffc0d 	b	402eec <_nl_load_domain+0x2ec>
  403ebc:	aa0f03e4 	mov	x4, x15
  403ec0:	17fffc0b 	b	402eec <_nl_load_domain+0x2ec>
  403ec4:	d2800004 	mov	x4, #0x0                   	// #0
  403ec8:	17fffc09 	b	402eec <_nl_load_domain+0x2ec>
  403ecc:	aa0c03e4 	mov	x4, x12
  403ed0:	17fffc07 	b	402eec <_nl_load_domain+0x2ec>
  403ed4:	39402821 	ldrb	w1, [x1, #10]
  403ed8:	350002e1 	cbnz	w1, 403f34 <_nl_load_domain+0x1334>
  403edc:	7101917f 	cmp	w11, #0x64
  403ee0:	54000260 	b.eq	403f2c <_nl_load_domain+0x132c>  // b.none
  403ee4:	b94093e1 	ldr	w1, [sp, #144]
  403ee8:	350001e1 	cbnz	w1, 403f24 <_nl_load_domain+0x1324>
  403eec:	7101bd7f 	cmp	w11, #0x6f
  403ef0:	54000160 	b.eq	403f1c <_nl_load_domain+0x131c>  // b.none
  403ef4:	7101d57f 	cmp	w11, #0x75
  403ef8:	540000e0 	b.eq	403f14 <_nl_load_domain+0x1314>  // b.none
  403efc:	f9403be1 	ldr	x1, [sp, #112]
  403f00:	7101e17f 	cmp	w11, #0x78
  403f04:	9a971024 	csel	x4, x1, x23, ne  // ne = any
  403f08:	17fffbf9 	b	402eec <_nl_load_domain+0x2ec>
  403f0c:	d2800004 	mov	x4, #0x0                   	// #0
  403f10:	17fffbf7 	b	402eec <_nl_load_domain+0x2ec>
  403f14:	aa0c03e4 	mov	x4, x12
  403f18:	17fffbf5 	b	402eec <_nl_load_domain+0x2ec>
  403f1c:	aa0d03e4 	mov	x4, x13
  403f20:	17fffbf3 	b	402eec <_nl_load_domain+0x2ec>
  403f24:	aa0e03e4 	mov	x4, x14
  403f28:	17fffbf1 	b	402eec <_nl_load_domain+0x2ec>
  403f2c:	aa0f03e4 	mov	x4, x15
  403f30:	17fffbef 	b	402eec <_nl_load_domain+0x2ec>
  403f34:	d2800004 	mov	x4, #0x0                   	// #0
  403f38:	17fffbed 	b	402eec <_nl_load_domain+0x2ec>
  403f3c:	97fff101 	bl	400340 <abort>

0000000000403f40 <alias_compare>:
  403f40:	f9400000 	ldr	x0, [x0]
  403f44:	d0000462 	adrp	x2, 491000 <tunable_list+0x528>
  403f48:	f9400021 	ldr	x1, [x1]
  403f4c:	91280042 	add	x2, x2, #0xa00
  403f50:	14004de0 	b	4176d0 <__strcasecmp_l>

0000000000403f54 <read_alias_file>:
  403f54:	d10983ff 	sub	sp, sp, #0x260
  403f58:	a9017bfd 	stp	x29, x30, [sp, #16]
  403f5c:	910043fd 	add	x29, sp, #0x10
  403f60:	a90463f7 	stp	x23, x24, [sp, #64]
  403f64:	d0000478 	adrp	x24, 491000 <tunable_list+0x528>
  403f68:	f945fb02 	ldr	x2, [x24, #3056]
  403f6c:	a90253f3 	stp	x19, x20, [sp, #32]
  403f70:	93407c34 	sxtw	x20, w1
  403f74:	91007683 	add	x3, x20, #0x1d
  403f78:	a9035bf5 	stp	x21, x22, [sp, #48]
  403f7c:	9270bc64 	and	x4, x3, #0xffffffffffff0000
  403f80:	a9056bf9 	stp	x25, x26, [sp, #80]
  403f84:	cb2463e4 	sub	x4, sp, x4
  403f88:	aa1403f3 	mov	x19, x20
  403f8c:	a90673fb 	stp	x27, x28, [sp, #96]
  403f90:	927cec63 	and	x3, x3, #0xfffffffffffffff0
  403f94:	f9400041 	ldr	x1, [x2]
  403f98:	f90127a1 	str	x1, [x29, #584]
  403f9c:	d2800001 	mov	x1, #0x0                   	// #0
  403fa0:	eb2463ff 	cmp	sp, x4
  403fa4:	540000a0 	b.eq	403fb8 <read_alias_file+0x64>  // b.none
  403fa8:	d14043ff 	sub	sp, sp, #0x10, lsl #12
  403fac:	f90203ff 	str	xzr, [sp, #1024]
  403fb0:	eb2463ff 	cmp	sp, x4
  403fb4:	54ffffa1 	b.ne	403fa8 <read_alias_file+0x54>  // b.any
  403fb8:	92403c63 	and	x3, x3, #0xffff
  403fbc:	cb2363ff 	sub	sp, sp, x3
  403fc0:	f90003ff 	str	xzr, [sp]
  403fc4:	f110007f 	cmp	x3, #0x400
  403fc8:	54001ba2 	b.cs	40433c <read_alias_file+0x3e8>  // b.hs, b.nlast
  403fcc:	910043e4 	add	x4, sp, #0x10
  403fd0:	aa0003e1 	mov	x1, x0
  403fd4:	aa1403e2 	mov	x2, x20
  403fd8:	aa0403e0 	mov	x0, x4
  403fdc:	97fff0b5 	bl	4002b0 <.plt+0x10>
  403fe0:	8b140014 	add	x20, x0, x20
  403fe4:	b00002a2 	adrp	x2, 458000 <free_modules_db+0x40>
  403fe8:	912b2042 	add	x2, x2, #0xac8
  403fec:	b00002a1 	adrp	x1, 458000 <free_modules_db+0x40>
  403ff0:	912b0021 	add	x1, x1, #0xac0
  403ff4:	f9400044 	ldr	x4, [x2]
  403ff8:	f833c804 	str	x4, [x0, w19, sxtw]
  403ffc:	f8406042 	ldur	x2, [x2, #6]
  404000:	f8006282 	stur	x2, [x20, #6]
  404004:	940010fb 	bl	4083f0 <_IO_new_fopen>
  404008:	aa0003f5 	mov	x21, x0
  40400c:	b40019c0 	cbz	x0, 404344 <read_alias_file+0x3f0>
  404010:	b9400001 	ldr	w1, [x0]
  404014:	9102e3b4 	add	x20, x29, #0xb8
  404018:	d2800019 	mov	x25, #0x0                   	// #0
  40401c:	32110022 	orr	w2, w1, #0x8000
  404020:	b9000002 	str	w2, [x0]
  404024:	37201b01 	tbnz	w1, #4, 404384 <read_alias_file+0x430>
  404028:	b0000460 	adrp	x0, 491000 <tunable_list+0x528>
  40402c:	f9476000 	ldr	x0, [x0, #3776]
  404030:	d53bd056 	mrs	x22, tpidr_el0
  404034:	90000497 	adrp	x23, 494000 <_IO_helper_jumps+0x80>
  404038:	912a02f7 	add	x23, x23, #0xa80
  40403c:	8b0002d6 	add	x22, x22, x0
  404040:	aa1503e2 	mov	x2, x21
  404044:	aa1403e0 	mov	x0, x20
  404048:	52803201 	mov	w1, #0x190                 	// #400
  40404c:	940019f9 	bl	40a830 <__fgets_unlocked>
  404050:	b40002c0 	cbz	x0, 4040a8 <read_alias_file+0x154>
  404054:	52800141 	mov	w1, #0xa                   	// #10
  404058:	aa1403e0 	mov	x0, x20
  40405c:	94004899 	bl	4162c0 <strchr>
  404060:	aa1403f3 	mov	x19, x20
  404064:	3942e3a1 	ldrb	w1, [x29, #184]
  404068:	aa0003fb 	mov	x27, x0
  40406c:	f94002c3 	ldr	x3, [x22]
  404070:	d37f1c22 	ubfiz	x2, x1, #1, #8
  404074:	78626862 	ldrh	w2, [x3, x2]
  404078:	366800c2 	tbz	w2, #13, 404090 <read_alias_file+0x13c>
  40407c:	d503201f 	nop
  404080:	38401e61 	ldrb	w1, [x19, #1]!
  404084:	d37f1c22 	ubfiz	x2, x1, #1, #8
  404088:	78626862 	ldrh	w2, [x3, x2]
  40408c:	376fffa2 	tbnz	w2, #13, 404080 <read_alias_file+0x12c>
  404090:	71008c3f 	cmp	w1, #0x23
  404094:	7a401824 	ccmp	w1, #0x0, #0x4, ne  // ne = any
  404098:	54000521 	b.ne	40413c <read_alias_file+0x1e8>  // b.any
  40409c:	b400045b 	cbz	x27, 404124 <read_alias_file+0x1d0>
  4040a0:	b94002a0 	ldr	w0, [x21]
  4040a4:	3627fce0 	tbz	w0, #4, 404040 <read_alias_file+0xec>
  4040a8:	aa1503e0 	mov	x0, x21
  4040ac:	94000f99 	bl	407f10 <_IO_new_fclose>
  4040b0:	b4000139 	cbz	x25, 4040d4 <read_alias_file+0x180>
  4040b4:	90000481 	adrp	x1, 494000 <_IO_helper_jumps+0x80>
  4040b8:	b00004a0 	adrp	x0, 499000 <_r_debug_extended+0x20>
  4040bc:	f0ffffe3 	adrp	x3, 403000 <_nl_load_domain+0x400>
  4040c0:	d2800202 	mov	x2, #0x10                  	// #16
  4040c4:	f9454021 	ldr	x1, [x1, #2688]
  4040c8:	913d0063 	add	x3, x3, #0xf40
  4040cc:	f943b800 	ldr	x0, [x0, #1904]
  4040d0:	9400080c 	bl	406100 <qsort>
  4040d4:	f945fb18 	ldr	x24, [x24, #3056]
  4040d8:	f94127a0 	ldr	x0, [x29, #584]
  4040dc:	f9400301 	ldr	x1, [x24]
  4040e0:	eb010000 	subs	x0, x0, x1
  4040e4:	d2800001 	mov	x1, #0x0                   	// #0
  4040e8:	54001521 	b.ne	40438c <read_alias_file+0x438>  // b.any
  4040ec:	d10043bf 	sub	sp, x29, #0x10
  4040f0:	aa1903e0 	mov	x0, x25
  4040f4:	a9417bfd 	ldp	x29, x30, [sp, #16]
  4040f8:	a94253f3 	ldp	x19, x20, [sp, #32]
  4040fc:	a9435bf5 	ldp	x21, x22, [sp, #48]
  404100:	a94463f7 	ldp	x23, x24, [sp, #64]
  404104:	a9456bf9 	ldp	x25, x26, [sp, #80]
  404108:	a94673fb 	ldp	x27, x28, [sp, #96]
  40410c:	910983ff 	add	sp, sp, #0x260
  404110:	d65f03c0 	ret
  404114:	aa1403e0 	mov	x0, x20
  404118:	52800141 	mov	w1, #0xa                   	// #10
  40411c:	94004869 	bl	4162c0 <strchr>
  404120:	b5fffc00 	cbnz	x0, 4040a0 <read_alias_file+0x14c>
  404124:	aa1503e2 	mov	x2, x21
  404128:	aa1403e0 	mov	x0, x20
  40412c:	52803201 	mov	w1, #0x190                 	// #400
  404130:	940019c0 	bl	40a830 <__fgets_unlocked>
  404134:	b5ffff00 	cbnz	x0, 404114 <read_alias_file+0x1c0>
  404138:	17ffffda 	b	4040a0 <read_alias_file+0x14c>
  40413c:	39400661 	ldrb	w1, [x19, #1]
  404140:	9100067a 	add	x26, x19, #0x1
  404144:	35000061 	cbnz	w1, 404150 <read_alias_file+0x1fc>
  404148:	14000009 	b	40416c <read_alias_file+0x218>
  40414c:	34000101 	cbz	w1, 40416c <read_alias_file+0x218>
  404150:	d37f1c22 	ubfiz	x2, x1, #1, #8
  404154:	aa1a03e4 	mov	x4, x26
  404158:	39400741 	ldrb	w1, [x26, #1]
  40415c:	9100075a 	add	x26, x26, #0x1
  404160:	78626862 	ldrh	w2, [x3, x2]
  404164:	366fff42 	tbz	w2, #13, 40414c <read_alias_file+0x1f8>
  404168:	3900009f 	strb	wzr, [x4]
  40416c:	d37f1c20 	ubfiz	x0, x1, #1, #8
  404170:	78606860 	ldrh	w0, [x3, x0]
  404174:	366800a0 	tbz	w0, #13, 404188 <read_alias_file+0x234>
  404178:	38401f41 	ldrb	w1, [x26, #1]!
  40417c:	d37f1c22 	ubfiz	x2, x1, #1, #8
  404180:	78626862 	ldrh	w2, [x3, x2]
  404184:	376fffa2 	tbnz	w2, #13, 404178 <read_alias_file+0x224>
  404188:	34fff8a1 	cbz	w1, 40409c <read_alias_file+0x148>
  40418c:	39400741 	ldrb	w1, [x26, #1]
  404190:	91000740 	add	x0, x26, #0x1
  404194:	35000081 	cbnz	w1, 4041a4 <read_alias_file+0x250>
  404198:	1400000a 	b	4041c0 <read_alias_file+0x26c>
  40419c:	38401c01 	ldrb	w1, [x0, #1]!
  4041a0:	34000101 	cbz	w1, 4041c0 <read_alias_file+0x26c>
  4041a4:	d37f1c22 	ubfiz	x2, x1, #1, #8
  4041a8:	78626862 	ldrh	w2, [x3, x2]
  4041ac:	366fff82 	tbz	w2, #13, 40419c <read_alias_file+0x248>
  4041b0:	7100283f 	cmp	w1, #0xa
  4041b4:	540009c1 	b.ne	4042ec <read_alias_file+0x398>  // b.any
  4041b8:	52814001 	mov	w1, #0xa00                 	// #2560
  4041bc:	79000001 	strh	w1, [x0]
  4041c0:	a94002fc 	ldp	x28, x0, [x23]
  4041c4:	b00004a5 	adrp	x5, 499000 <_r_debug_extended+0x20>
  4041c8:	eb00039f 	cmp	x28, x0
  4041cc:	540009a2 	b.cs	404300 <read_alias_file+0x3ac>  // b.hs, b.nlast
  4041d0:	aa1303e0 	mov	x0, x19
  4041d4:	f90053a5 	str	x5, [x29, #160]
  4041d8:	97fff04a 	bl	400300 <.plt+0x60>
  4041dc:	aa0003e2 	mov	x2, x0
  4041e0:	91000442 	add	x2, x2, #0x1
  4041e4:	aa1a03e0 	mov	x0, x26
  4041e8:	f90057a2 	str	x2, [x29, #168]
  4041ec:	97fff045 	bl	400300 <.plt+0x60>
  4041f0:	91000404 	add	x4, x0, #0x1
  4041f4:	a94a0ba5 	ldp	x5, x2, [x29, #160]
  4041f8:	a94106ea 	ldp	x10, x1, [x23, #16]
  4041fc:	911dc0a6 	add	x6, x5, #0x770
  404200:	8b020149 	add	x9, x10, x2
  404204:	8b040128 	add	x8, x9, x4
  404208:	f94004c3 	ldr	x3, [x6, #8]
  40420c:	eb01011f 	cmp	x8, x1
  404210:	54000388 	b.hi	404280 <read_alias_file+0x32c>  // b.pmore
  404214:	f943b8ab 	ldr	x11, [x5, #1904]
  404218:	d37cef87 	lsl	x7, x28, #4
  40421c:	8b070165 	add	x5, x11, x7
  404220:	8b0a0060 	add	x0, x3, x10
  404224:	aa1303e1 	mov	x1, x19
  404228:	a907a3a4 	stp	x4, x8, [x29, #120]
  40422c:	9100079c 	add	x28, x28, #0x1
  404230:	a9089fa9 	stp	x9, x7, [x29, #136]
  404234:	91000739 	add	x25, x25, #0x1
  404238:	a90997ab 	stp	x11, x5, [x29, #152]
  40423c:	f90057a3 	str	x3, [x29, #168]
  404240:	97fff01c 	bl	4002b0 <.plt+0x10>
  404244:	a9489fa9 	ldp	x9, x7, [x29, #136]
  404248:	aa1a03e1 	mov	x1, x26
  40424c:	f9404fab 	ldr	x11, [x29, #152]
  404250:	f9403fa4 	ldr	x4, [x29, #120]
  404254:	f94057a3 	ldr	x3, [x29, #168]
  404258:	f8276960 	str	x0, [x11, x7]
  40425c:	aa0403e2 	mov	x2, x4
  404260:	8b090060 	add	x0, x3, x9
  404264:	97fff013 	bl	4002b0 <.plt+0x10>
  404268:	f90002fc 	str	x28, [x23]
  40426c:	f94053a5 	ldr	x5, [x29, #160]
  404270:	f94043a8 	ldr	x8, [x29, #128]
  404274:	f9000ae8 	str	x8, [x23, #16]
  404278:	f90004a0 	str	x0, [x5, #8]
  40427c:	17ffff88 	b	40409c <read_alias_file+0x148>
  404280:	8b040047 	add	x7, x2, x4
  404284:	d280800b 	mov	x11, #0x400                 	// #1024
  404288:	eb0b00ff 	cmp	x7, x11
  40428c:	aa0303e0 	mov	x0, x3
  404290:	9a8b20e7 	csel	x7, x7, x11, cs  // cs = hs, nlast
  404294:	a9069ba5 	stp	x5, x6, [x29, #104]
  404298:	8b0100e1 	add	x1, x7, x1
  40429c:	a907a7a8 	stp	x8, x9, [x29, #120]
  4042a0:	a90893aa 	stp	x10, x4, [x29, #136]
  4042a4:	a9098fa2 	stp	x2, x3, [x29, #152]
  4042a8:	f90057a1 	str	x1, [x29, #168]
  4042ac:	9400433a 	bl	414f94 <__libc_realloc>
  4042b0:	b4ffefc0 	cbz	x0, 4040a8 <read_alias_file+0x154>
  4042b4:	a9469ba5 	ldp	x5, x6, [x29, #104]
  4042b8:	a9498fa2 	ldp	x2, x3, [x29, #152]
  4042bc:	a947a7a8 	ldp	x8, x9, [x29, #120]
  4042c0:	f94000cb 	ldr	x11, [x6]
  4042c4:	eb03001f 	cmp	x0, x3
  4042c8:	a94893aa 	ldp	x10, x4, [x29, #136]
  4042cc:	f94057a1 	ldr	x1, [x29, #168]
  4042d0:	540003e1 	b.ne	40434c <read_alias_file+0x3f8>  // b.any
  4042d4:	d37cef87 	lsl	x7, x28, #4
  4042d8:	911dc0a5 	add	x5, x5, #0x770
  4042dc:	aa0003e3 	mov	x3, x0
  4042e0:	f9000ee1 	str	x1, [x23, #24]
  4042e4:	f90004a0 	str	x0, [x5, #8]
  4042e8:	17ffffcd 	b	40421c <read_alias_file+0x2c8>
  4042ec:	3900001f 	strb	wzr, [x0]
  4042f0:	b00004a5 	adrp	x5, 499000 <_r_debug_extended+0x20>
  4042f4:	a94002fc 	ldp	x28, x0, [x23]
  4042f8:	eb00039f 	cmp	x28, x0
  4042fc:	54fff6a3 	b.cc	4041d0 <read_alias_file+0x27c>  // b.lo, b.ul, b.last
  404300:	b5000180 	cbnz	x0, 404330 <read_alias_file+0x3dc>
  404304:	d280c801 	mov	x1, #0x640                 	// #1600
  404308:	d2800c82 	mov	x2, #0x64                  	// #100
  40430c:	b00004a5 	adrp	x5, 499000 <_r_debug_extended+0x20>
  404310:	a90a17a2 	stp	x2, x5, [x29, #160]
  404314:	f943b8a0 	ldr	x0, [x5, #1904]
  404318:	9400431f 	bl	414f94 <__libc_realloc>
  40431c:	b4ffec60 	cbz	x0, 4040a8 <read_alias_file+0x154>
  404320:	a94a17a2 	ldp	x2, x5, [x29, #160]
  404324:	f90006e2 	str	x2, [x23, #8]
  404328:	f903b8a0 	str	x0, [x5, #1904]
  40432c:	17ffffa9 	b	4041d0 <read_alias_file+0x27c>
  404330:	d37ff802 	lsl	x2, x0, #1
  404334:	d37be801 	lsl	x1, x0, #5
  404338:	17fffff5 	b	40430c <read_alias_file+0x3b8>
  40433c:	f90203ff 	str	xzr, [sp, #1024]
  404340:	17ffff23 	b	403fcc <read_alias_file+0x78>
  404344:	d2800019 	mov	x25, #0x0                   	// #0
  404348:	17ffff63 	b	4040d4 <read_alias_file+0x180>
  40434c:	d2800007 	mov	x7, #0x0                   	// #0
  404350:	b4fffc5c 	cbz	x28, 4042d8 <read_alias_file+0x384>
  404354:	d37cef87 	lsl	x7, x28, #4
  404358:	cb030003 	sub	x3, x0, x3
  40435c:	8b07016e 	add	x14, x11, x7
  404360:	aa0b03e6 	mov	x6, x11
  404364:	a94030cd 	ldp	x13, x12, [x6]
  404368:	8b0301ad 	add	x13, x13, x3
  40436c:	8b03018c 	add	x12, x12, x3
  404370:	a90030cd 	stp	x13, x12, [x6]
  404374:	910040c6 	add	x6, x6, #0x10
  404378:	eb0601df 	cmp	x14, x6
  40437c:	54ffff41 	b.ne	404364 <read_alias_file+0x410>  // b.any
  404380:	17ffffd6 	b	4042d8 <read_alias_file+0x384>
  404384:	94000ee3 	bl	407f10 <_IO_new_fclose>
  404388:	17ffff53 	b	4040d4 <read_alias_file+0x180>
  40438c:	940063e9 	bl	41d330 <__stack_chk_fail>

0000000000404390 <_nl_expand_alias>:
  404390:	a9bb7bfd 	stp	x29, x30, [sp, #-80]!
  404394:	52800021 	mov	w1, #0x1                   	// #1
  404398:	910003fd 	mov	x29, sp
  40439c:	a90153f3 	stp	x19, x20, [sp, #16]
  4043a0:	aa0003f4 	mov	x20, x0
  4043a4:	52800000 	mov	w0, #0x0                   	// #0
  4043a8:	a9025bf5 	stp	x21, x22, [sp, #32]
  4043ac:	90000495 	adrp	x21, 494000 <_IO_helper_jumps+0x80>
  4043b0:	912a02b3 	add	x19, x21, #0xa80
  4043b4:	91008273 	add	x19, x19, #0x20
  4043b8:	a90363f7 	stp	x23, x24, [sp, #48]
  4043bc:	aa1303e2 	mov	x2, x19
  4043c0:	a9046bf9 	stp	x25, x26, [sp, #64]
  4043c4:	940138df 	bl	452740 <__aarch64_cas4_acq>
  4043c8:	35000d00 	cbnz	w0, 404568 <_nl_expand_alias+0x1d8>
  4043cc:	912a02a1 	add	x1, x21, #0xa80
  4043d0:	f9401420 	ldr	x0, [x1, #40]
  4043d4:	b4000a00 	cbz	x0, 404514 <_nl_expand_alias+0x184>
  4043d8:	f94542b7 	ldr	x23, [x21, #2688]
  4043dc:	b0000473 	adrp	x19, 491000 <tunable_list+0x528>
  4043e0:	91280273 	add	x19, x19, #0xa00
  4043e4:	b50006d7 	cbnz	x23, 4044bc <_nl_expand_alias+0x12c>
  4043e8:	912a02b6 	add	x22, x21, #0xa80
  4043ec:	f94016c3 	ldr	x3, [x22, #40]
  4043f0:	52800001 	mov	w1, #0x0                   	// #0
  4043f4:	39400060 	ldrb	w0, [x3]
  4043f8:	340002c0 	cbz	w0, 404450 <_nl_expand_alias+0xc0>
  4043fc:	d503201f 	nop
  404400:	91000461 	add	x1, x3, #0x1
  404404:	7100e81f 	cmp	w0, #0x3a
  404408:	54000821 	b.ne	40450c <_nl_expand_alias+0x17c>  // b.any
  40440c:	d503201f 	nop
  404410:	aa0103e0 	mov	x0, x1
  404414:	38401422 	ldrb	w2, [x1], #1
  404418:	7100e85f 	cmp	w2, #0x3a
  40441c:	54ffffa0 	b.eq	404410 <_nl_expand_alias+0x80>  // b.none
  404420:	340003c2 	cbz	w2, 404498 <_nl_expand_alias+0x108>
  404424:	91000401 	add	x1, x0, #0x1
  404428:	aa0103e3 	mov	x3, x1
  40442c:	38401422 	ldrb	w2, [x1], #1
  404430:	7100e85f 	cmp	w2, #0x3a
  404434:	7a401844 	ccmp	w2, #0x0, #0x4, ne  // ne = any
  404438:	54ffff81 	b.ne	404428 <_nl_expand_alias+0x98>  // b.any
  40443c:	eb00007f 	cmp	x3, x0
  404440:	54000328 	b.hi	4044a4 <_nl_expand_alias+0x114>  // b.pmore
  404444:	52800021 	mov	w1, #0x1                   	// #1
  404448:	39400060 	ldrb	w0, [x3]
  40444c:	35fffda0 	cbnz	w0, 404400 <_nl_expand_alias+0x70>
  404450:	34000061 	cbz	w1, 40445c <_nl_expand_alias+0xcc>
  404454:	912a02a0 	add	x0, x21, #0xa80
  404458:	f9001403 	str	x3, [x0, #40]
  40445c:	912a02b4 	add	x20, x21, #0xa80
  404460:	d2800013 	mov	x19, #0x0                   	// #0
  404464:	91008294 	add	x20, x20, #0x20
  404468:	52800000 	mov	w0, #0x0                   	// #0
  40446c:	aa1403e1 	mov	x1, x20
  404470:	94013948 	bl	452990 <__aarch64_swp4_rel>
  404474:	7100041f 	cmp	w0, #0x1
  404478:	5400066c 	b.gt	404544 <_nl_expand_alias+0x1b4>
  40447c:	aa1303e0 	mov	x0, x19
  404480:	a94153f3 	ldp	x19, x20, [sp, #16]
  404484:	a9425bf5 	ldp	x21, x22, [sp, #32]
  404488:	a94363f7 	ldp	x23, x24, [sp, #48]
  40448c:	a9446bf9 	ldp	x25, x26, [sp, #64]
  404490:	a8c57bfd 	ldp	x29, x30, [sp], #80
  404494:	d65f03c0 	ret
  404498:	aa0003e3 	mov	x3, x0
  40449c:	52800021 	mov	w1, #0x1                   	// #1
  4044a0:	17ffffea 	b	404448 <_nl_expand_alias+0xb8>
  4044a4:	4b000061 	sub	w1, w3, w0
  4044a8:	f90016c3 	str	x3, [x22, #40]
  4044ac:	97fffeaa 	bl	403f54 <read_alias_file>
  4044b0:	b4fff9e0 	cbz	x0, 4043ec <_nl_expand_alias+0x5c>
  4044b4:	f94542b7 	ldr	x23, [x21, #2688]
  4044b8:	b4fff997 	cbz	x23, 4043e8 <_nl_expand_alias+0x58>
  4044bc:	b00004a0 	adrp	x0, 499000 <_r_debug_extended+0x20>
  4044c0:	d2800018 	mov	x24, #0x0                   	// #0
  4044c4:	f943b819 	ldr	x25, [x0, #1904]
  4044c8:	14000005 	b	4044dc <_nl_expand_alias+0x14c>
  4044cc:	540002c0 	b.eq	404524 <_nl_expand_alias+0x194>  // b.none
  4044d0:	910006d8 	add	x24, x22, #0x1
  4044d4:	eb1802ff 	cmp	x23, x24
  4044d8:	54fff889 	b.ls	4043e8 <_nl_expand_alias+0x58>  // b.plast
  4044dc:	8b170316 	add	x22, x24, x23
  4044e0:	aa1303e2 	mov	x2, x19
  4044e4:	aa1403e0 	mov	x0, x20
  4044e8:	d341fed6 	lsr	x22, x22, #1
  4044ec:	d37ceec1 	lsl	x1, x22, #4
  4044f0:	8b01033a 	add	x26, x25, x1
  4044f4:	f8616b21 	ldr	x1, [x25, x1]
  4044f8:	94004c76 	bl	4176d0 <__strcasecmp_l>
  4044fc:	7100001f 	cmp	w0, #0x0
  404500:	54fffe6a 	b.ge	4044cc <_nl_expand_alias+0x13c>  // b.tcont
  404504:	aa1603f7 	mov	x23, x22
  404508:	17fffff3 	b	4044d4 <_nl_expand_alias+0x144>
  40450c:	aa0303e0 	mov	x0, x3
  404510:	17ffffc5 	b	404424 <_nl_expand_alias+0x94>
  404514:	900002a0 	adrp	x0, 458000 <free_modules_db+0x40>
  404518:	91290000 	add	x0, x0, #0xa40
  40451c:	f9001420 	str	x0, [x1, #40]
  404520:	17ffffae 	b	4043d8 <_nl_expand_alias+0x48>
  404524:	912a02b4 	add	x20, x21, #0xa80
  404528:	52800000 	mov	w0, #0x0                   	// #0
  40452c:	91008294 	add	x20, x20, #0x20
  404530:	aa1403e1 	mov	x1, x20
  404534:	f9400753 	ldr	x19, [x26, #8]
  404538:	94013916 	bl	452990 <__aarch64_swp4_rel>
  40453c:	7100041f 	cmp	w0, #0x1
  404540:	54fff9ed 	b.le	40447c <_nl_expand_alias+0xec>
  404544:	aa1403e0 	mov	x0, x20
  404548:	94002ca7 	bl	40f7e4 <__lll_lock_wake_private>
  40454c:	aa1303e0 	mov	x0, x19
  404550:	a94153f3 	ldp	x19, x20, [sp, #16]
  404554:	a9425bf5 	ldp	x21, x22, [sp, #32]
  404558:	a94363f7 	ldp	x23, x24, [sp, #48]
  40455c:	a9446bf9 	ldp	x25, x26, [sp, #64]
  404560:	a8c57bfd 	ldp	x29, x30, [sp], #80
  404564:	d65f03c0 	ret
  404568:	aa1303e0 	mov	x0, x19
  40456c:	94002c5d 	bl	40f6e0 <__lll_lock_wait_private>
  404570:	17ffff97 	b	4043cc <_nl_expand_alias+0x3c>
  404574:	d503201f 	nop
  404578:	d503201f 	nop
  40457c:	d503201f 	nop

0000000000404580 <_nl_make_l10nflist>:
  404580:	d102c3ff 	sub	sp, sp, #0xb0
  404584:	a9027bfd 	stp	x29, x30, [sp, #32]
  404588:	910083fd 	add	x29, sp, #0x20
  40458c:	a90353f3 	stp	x19, x20, [sp, #48]
  404590:	2a0303f4 	mov	w20, w3
  404594:	a9045bf5 	stp	x21, x22, [sp, #64]
  404598:	aa0203f5 	mov	x21, x2
  40459c:	aa0503f6 	mov	x22, x5
  4045a0:	a90563f7 	stp	x23, x24, [sp, #80]
  4045a4:	aa0403f7 	mov	x23, x4
  4045a8:	121e0078 	and	w24, w3, #0x4
  4045ac:	a9066bf9 	stp	x25, x26, [sp, #96]
  4045b0:	aa0103f9 	mov	x25, x1
  4045b4:	9100085a 	add	x26, x2, #0x2
  4045b8:	a9081be0 	stp	x0, x6, [sp, #128]
  4045bc:	aa0403e0 	mov	x0, x4
  4045c0:	a90917e7 	stp	x7, x5, [sp, #144]
  4045c4:	97ffef4f 	bl	400300 <.plt+0x60>
  4045c8:	aa0003f3 	mov	x19, x0
  4045cc:	d2800000 	mov	x0, #0x0                   	// #0
  4045d0:	36100094 	tbz	w20, #2, 4045e0 <_nl_make_l10nflist+0x60>
  4045d4:	aa1603e0 	mov	x0, x22
  4045d8:	97ffef4a 	bl	400300 <.plt+0x60>
  4045dc:	91000400 	add	x0, x0, #0x1
  4045e0:	8b000273 	add	x19, x19, x0
  4045e4:	121f0280 	and	w0, w20, #0x2
  4045e8:	b900a3e0 	str	w0, [sp, #160]
  4045ec:	8b1a0273 	add	x19, x19, x26
  4045f0:	d2800016 	mov	x22, #0x0                   	// #0
  4045f4:	36080094 	tbz	w20, #1, 404604 <_nl_make_l10nflist+0x84>
  4045f8:	f94047e0 	ldr	x0, [sp, #136]
  4045fc:	97ffef41 	bl	400300 <.plt+0x60>
  404600:	91000416 	add	x22, x0, #0x1
  404604:	12000281 	and	w1, w20, #0x1
  404608:	b900abe1 	str	w1, [sp, #168]
  40460c:	d2800000 	mov	x0, #0x0                   	// #0
  404610:	36000094 	tbz	w20, #0, 404620 <_nl_make_l10nflist+0xa0>
  404614:	f9404be0 	ldr	x0, [sp, #144]
  404618:	97ffef3a 	bl	400300 <.plt+0x60>
  40461c:	91000400 	add	x0, x0, #0x1
  404620:	8b0002c0 	add	x0, x22, x0
  404624:	d2800016 	mov	x22, #0x0                   	// #0
  404628:	8b130013 	add	x19, x0, x19
  40462c:	121d0280 	and	w0, w20, #0x8
  404630:	b900afe0 	str	w0, [sp, #172]
  404634:	36180094 	tbz	w20, #3, 404644 <_nl_make_l10nflist+0xc4>
  404638:	f9405be0 	ldr	x0, [sp, #176]
  40463c:	97ffef31 	bl	400300 <.plt+0x60>
  404640:	91000416 	add	x22, x0, #0x1
  404644:	f9405fe0 	ldr	x0, [sp, #184]
  404648:	97ffef2e 	bl	400300 <.plt+0x60>
  40464c:	aa0003fa 	mov	x26, x0
  404650:	8b160000 	add	x0, x0, x22
  404654:	8b130000 	add	x0, x0, x19
  404658:	9400405e 	bl	4147d0 <__libc_malloc>
  40465c:	aa0003f3 	mov	x19, x0
  404660:	b4002360 	cbz	x0, 404acc <_nl_make_l10nflist+0x54c>
  404664:	aa1503e2 	mov	x2, x21
  404668:	aa1903e1 	mov	x1, x25
  40466c:	a90773fb 	stp	x27, x28, [sp, #112]
  404670:	97ffef10 	bl	4002b0 <.plt+0x10>
  404674:	b4000255 	cbz	x21, 4046bc <_nl_make_l10nflist+0x13c>
  404678:	aa1503fc 	mov	x28, x21
  40467c:	aa1303fb 	mov	x27, x19
  404680:	aa1b03e0 	mov	x0, x27
  404684:	97ffef1f 	bl	400300 <.plt+0x60>
  404688:	8b00037b 	add	x27, x27, x0
  40468c:	cb000380 	sub	x0, x28, x0
  404690:	f100041c 	subs	x28, x0, #0x1
  404694:	52800756 	mov	w22, #0x3a                  	// #58
  404698:	54000120 	b.eq	4046bc <_nl_make_l10nflist+0x13c>  // b.none
  40469c:	d503201f 	nop
  4046a0:	38001776 	strb	w22, [x27], #1
  4046a4:	aa1b03e0 	mov	x0, x27
  4046a8:	97ffef16 	bl	400300 <.plt+0x60>
  4046ac:	8b00037b 	add	x27, x27, x0
  4046b0:	cb000380 	sub	x0, x28, x0
  4046b4:	f100041c 	subs	x28, x0, #0x1
  4046b8:	54ffff41 	b.ne	4046a0 <_nl_make_l10nflist+0x120>  // b.any
  4046bc:	8b150260 	add	x0, x19, x21
  4046c0:	528005e2 	mov	w2, #0x2f                  	// #47
  4046c4:	aa1703e1 	mov	x1, x23
  4046c8:	381ff002 	sturb	w2, [x0, #-1]
  4046cc:	94004bad 	bl	417580 <__stpcpy>
  4046d0:	35001cb8 	cbnz	w24, 404a64 <_nl_make_l10nflist+0x4e4>
  4046d4:	b940a3e1 	ldr	w1, [sp, #160]
  4046d8:	35001bc1 	cbnz	w1, 404a50 <_nl_make_l10nflist+0x4d0>
  4046dc:	b940abe1 	ldr	w1, [sp, #168]
  4046e0:	35001a21 	cbnz	w1, 404a24 <_nl_make_l10nflist+0x4a4>
  4046e4:	b940afe1 	ldr	w1, [sp, #172]
  4046e8:	35001aa1 	cbnz	w1, 404a3c <_nl_make_l10nflist+0x4bc>
  4046ec:	f9405fe1 	ldr	x1, [sp, #184]
  4046f0:	528005e3 	mov	w3, #0x2f                  	// #47
  4046f4:	38001403 	strb	w3, [x0], #1
  4046f8:	91000742 	add	x2, x26, #0x1
  4046fc:	d2800016 	mov	x22, #0x0                   	// #0
  404700:	97ffeeec 	bl	4002b0 <.plt+0x10>
  404704:	f94043e0 	ldr	x0, [sp, #128]
  404708:	f940001a 	ldr	x26, [x0]
  40470c:	f90053fa 	str	x26, [sp, #160]
  404710:	b400019a 	cbz	x26, 404740 <_nl_make_l10nflist+0x1c0>
  404714:	d503201f 	nop
  404718:	f9400340 	ldr	x0, [x26]
  40471c:	aa1303e1 	mov	x1, x19
  404720:	b40000c0 	cbz	x0, 404738 <_nl_make_l10nflist+0x1b8>
  404724:	94004717 	bl	416380 <strcmp>
  404728:	7100001f 	cmp	w0, #0x0
  40472c:	34001660 	cbz	w0, 4049f8 <_nl_make_l10nflist+0x478>
  404730:	5400008b 	b.lt	404740 <_nl_make_l10nflist+0x1c0>  // b.tstop
  404734:	aa1a03f6 	mov	x22, x26
  404738:	f9400f5a 	ldr	x26, [x26, #24]
  40473c:	b5fffefa 	cbnz	x26, 404718 <_nl_make_l10nflist+0x198>
  404740:	b940c3e0 	ldr	w0, [sp, #192]
  404744:	34001580 	cbz	w0, 4049f4 <_nl_make_l10nflist+0x474>
  404748:	12855540 	mov	w0, #0xffffd555            	// #-10923
  40474c:	528aaaa1 	mov	w1, #0x5555                	// #21845
  404750:	0a940400 	and	w0, w0, w20, asr #1
  404754:	0a010281 	and	w1, w20, w1
  404758:	0b010000 	add	w0, w0, w1
  40475c:	12819982 	mov	w2, #0xfffff333            	// #-3277
  404760:	52866661 	mov	w1, #0x3333                	// #13107
  404764:	0a010001 	and	w1, w0, w1
  404768:	0a800840 	and	w0, w2, w0, asr #2
  40476c:	5281e1e5 	mov	w5, #0xf0f                 	// #3855
  404770:	0b010000 	add	w0, w0, w1
  404774:	52800024 	mov	w4, #0x1                   	// #1
  404778:	aa1503f8 	mov	x24, x21
  40477c:	aa1903fc 	mov	x28, x25
  404780:	0b801000 	add	w0, w0, w0, asr #4
  404784:	d280001b 	mov	x27, #0x0                   	// #0
  404788:	0a050000 	and	w0, w0, w5
  40478c:	0b402000 	add	w0, w0, w0, lsr #8
  404790:	1ac02080 	lsl	w0, w4, w0
  404794:	93407c1a 	sxtw	x26, w0
  404798:	b40017f5 	cbz	x21, 404a94 <_nl_make_l10nflist+0x514>
  40479c:	d503201f 	nop
  4047a0:	aa1c03e0 	mov	x0, x28
  4047a4:	97ffeed7 	bl	400300 <.plt+0x60>
  4047a8:	cb000301 	sub	x1, x24, x0
  4047ac:	91000400 	add	x0, x0, #0x1
  4047b0:	9100077b 	add	x27, x27, #0x1
  4047b4:	f1000438 	subs	x24, x1, #0x1
  4047b8:	8b00039c 	add	x28, x28, x0
  4047bc:	54ffff21 	b.ne	4047a0 <_nl_make_l10nflist+0x220>  // b.any
  4047c0:	9b1a7f60 	mul	x0, x27, x26
  4047c4:	d37cec00 	lsl	x0, x0, #4
  4047c8:	9100a000 	add	x0, x0, #0x28
  4047cc:	94004001 	bl	4147d0 <__libc_malloc>
  4047d0:	aa0003fa 	mov	x26, x0
  4047d4:	b4001720 	cbz	x0, 404ab8 <_nl_make_l10nflist+0x538>
  4047d8:	aa1503fc 	mov	x28, x21
  4047dc:	aa1903fb 	mov	x27, x25
  4047e0:	f9000013 	str	x19, [x0]
  4047e4:	d503201f 	nop
  4047e8:	aa1b03e0 	mov	x0, x27
  4047ec:	97ffeec5 	bl	400300 <.plt+0x60>
  4047f0:	cb000382 	sub	x2, x28, x0
  4047f4:	91000400 	add	x0, x0, #0x1
  4047f8:	91000718 	add	x24, x24, #0x1
  4047fc:	f100045c 	subs	x28, x2, #0x1
  404800:	8b00037b 	add	x27, x27, x0
  404804:	54ffff21 	b.ne	4047e8 <_nl_make_l10nflist+0x268>  // b.any
  404808:	52800020 	mov	w0, #0x1                   	// #1
  40480c:	f100071f 	cmp	x24, #0x1
  404810:	540007c0 	b.eq	404908 <_nl_make_l10nflist+0x388>  // b.none
  404814:	b9000b40 	str	w0, [x26, #8]
  404818:	f9000b5f 	str	xzr, [x26, #16]
  40481c:	b40012f6 	cbz	x22, 404a78 <_nl_make_l10nflist+0x4f8>
  404820:	f9400ec0 	ldr	x0, [x22, #24]
  404824:	f9000f40 	str	x0, [x26, #24]
  404828:	f9000eda 	str	x26, [x22, #24]
  40482c:	b4001315 	cbz	x21, 404a8c <_nl_make_l10nflist+0x50c>
  404830:	aa1503f3 	mov	x19, x21
  404834:	aa1903f6 	mov	x22, x25
  404838:	d2800018 	mov	x24, #0x0                   	// #0
  40483c:	d503201f 	nop
  404840:	aa1603e0 	mov	x0, x22
  404844:	97ffeeaf 	bl	400300 <.plt+0x60>
  404848:	cb000261 	sub	x1, x19, x0
  40484c:	91000400 	add	x0, x0, #0x1
  404850:	91000718 	add	x24, x24, #0x1
  404854:	f1000433 	subs	x19, x1, #0x1
  404858:	8b0002d6 	add	x22, x22, x0
  40485c:	54ffff21 	b.ne	404840 <_nl_make_l10nflist+0x2c0>  // b.any
  404860:	f100071f 	cmp	x24, #0x1
  404864:	1a9f17f8 	cset	w24, eq  // eq = none
  404868:	4b180298 	sub	w24, w20, w24
  40486c:	2a3403ea 	mvn	w10, w20
  404870:	d2800013 	mov	x19, #0x0                   	// #0
  404874:	37f80158 	tbnz	w24, #31, 40489c <_nl_make_l10nflist+0x31c>
  404878:	8b150336 	add	x22, x25, x21
  40487c:	91006340 	add	x0, x26, #0x18
  404880:	5280003c 	mov	w28, #0x1                   	// #1
  404884:	f90053e0 	str	x0, [sp, #160]
  404888:	6a0a031f 	tst	w24, w10
  40488c:	54000700 	b.eq	40496c <_nl_make_l10nflist+0x3ec>  // b.none
  404890:	51000718 	sub	w24, w24, #0x1
  404894:	3100071f 	cmn	w24, #0x1
  404898:	54ffff81 	b.ne	404888 <_nl_make_l10nflist+0x308>  // b.any
  40489c:	f9405fe0 	ldr	x0, [sp, #184]
  4048a0:	900002a1 	adrp	x1, 458000 <free_modules_db+0x40>
  4048a4:	d2800162 	mov	x2, #0xb                   	// #11
  4048a8:	912b6021 	add	x1, x1, #0xad8
  4048ac:	940047ce 	bl	4167e4 <strncmp>
  4048b0:	35000160 	cbnz	w0, 4048dc <_nl_make_l10nflist+0x35c>
  4048b4:	37f80154 	tbnz	w20, #31, 4048dc <_nl_make_l10nflist+0x35c>
  4048b8:	900002b6 	adrp	x22, 458000 <free_modules_db+0x40>
  4048bc:	2a3403f5 	mvn	w21, w20
  4048c0:	912ba2d6 	add	x22, x22, #0xae8
  4048c4:	52800038 	mov	w24, #0x1                   	// #1
  4048c8:	6a15029f 	tst	w20, w21
  4048cc:	540002c0 	b.eq	404924 <_nl_make_l10nflist+0x3a4>  // b.none
  4048d0:	51000694 	sub	w20, w20, #0x1
  4048d4:	3100069f 	cmn	w20, #0x1
  4048d8:	54ffff81 	b.ne	4048c8 <_nl_make_l10nflist+0x348>  // b.any
  4048dc:	a94773fb 	ldp	x27, x28, [sp, #112]
  4048e0:	91001269 	add	x9, x19, #0x4
  4048e4:	f8297b5f 	str	xzr, [x26, x9, lsl #3]
  4048e8:	aa1a03e0 	mov	x0, x26
  4048ec:	a9427bfd 	ldp	x29, x30, [sp, #32]
  4048f0:	a94353f3 	ldp	x19, x20, [sp, #48]
  4048f4:	a9445bf5 	ldp	x21, x22, [sp, #64]
  4048f8:	a94563f7 	ldp	x23, x24, [sp, #80]
  4048fc:	a9466bf9 	ldp	x25, x26, [sp, #96]
  404900:	9102c3ff 	add	sp, sp, #0xb0
  404904:	d65f03c0 	ret
  404908:	12000680 	and	w0, w20, #0x3
  40490c:	f9000b5f 	str	xzr, [x26, #16]
  404910:	71000c1f 	cmp	w0, #0x3
  404914:	1a9f17e0 	cset	w0, eq  // eq = none
  404918:	b9000b40 	str	w0, [x26, #8]
  40491c:	b5fff836 	cbnz	x22, 404820 <_nl_make_l10nflist+0x2a0>
  404920:	14000056 	b	404a78 <_nl_make_l10nflist+0x4f8>
  404924:	a9489fe6 	ldp	x6, x7, [sp, #136]
  404928:	b90013f8 	str	w24, [sp, #16]
  40492c:	f9405be0 	ldr	x0, [sp, #176]
  404930:	f90003e0 	str	x0, [sp]
  404934:	f9405fe0 	ldr	x0, [sp, #184]
  404938:	f90007e0 	str	x0, [sp, #8]
  40493c:	f94043e0 	ldr	x0, [sp, #128]
  404940:	aa1603e1 	mov	x1, x22
  404944:	f9404fe5 	ldr	x5, [sp, #152]
  404948:	aa1703e4 	mov	x4, x23
  40494c:	2a1403e3 	mov	w3, w20
  404950:	d2800362 	mov	x2, #0x1b                  	// #27
  404954:	97ffff0b 	bl	404580 <_nl_make_l10nflist>
  404958:	91001261 	add	x1, x19, #0x4
  40495c:	91000669 	add	x9, x19, #0x1
  404960:	aa0903f3 	mov	x19, x9
  404964:	f8217b40 	str	x0, [x26, x1, lsl #3]
  404968:	17ffffda 	b	4048d0 <_nl_make_l10nflist+0x350>
  40496c:	d280001b 	mov	x27, #0x0                   	// #0
  404970:	b40003db 	cbz	x27, 4049e8 <_nl_make_l10nflist+0x468>
  404974:	aa1b03e0 	mov	x0, x27
  404978:	eb16037f 	cmp	x27, x22
  40497c:	54fff8a2 	b.cs	404890 <_nl_make_l10nflist+0x310>  // b.hs, b.nlast
  404980:	b900abea 	str	w10, [sp, #168]
  404984:	97ffee5f 	bl	400300 <.plt+0x60>
  404988:	91000400 	add	x0, x0, #0x1
  40498c:	b940abea 	ldr	w10, [sp, #168]
  404990:	8b00037b 	add	x27, x27, x0
  404994:	eb16037f 	cmp	x27, x22
  404998:	54fff7c2 	b.cs	404890 <_nl_make_l10nflist+0x310>  // b.hs, b.nlast
  40499c:	aa1b03e0 	mov	x0, x27
  4049a0:	b900abea 	str	w10, [sp, #168]
  4049a4:	97ffee57 	bl	400300 <.plt+0x60>
  4049a8:	91000402 	add	x2, x0, #0x1
  4049ac:	a9489fe6 	ldp	x6, x7, [sp, #136]
  4049b0:	b90013fc 	str	w28, [sp, #16]
  4049b4:	a94b03e1 	ldp	x1, x0, [sp, #176]
  4049b8:	a90003e1 	stp	x1, x0, [sp]
  4049bc:	aa1703e4 	mov	x4, x23
  4049c0:	f94043e0 	ldr	x0, [sp, #128]
  4049c4:	aa1b03e1 	mov	x1, x27
  4049c8:	f9404fe5 	ldr	x5, [sp, #152]
  4049cc:	2a1803e3 	mov	w3, w24
  4049d0:	91000673 	add	x19, x19, #0x1
  4049d4:	97fffeeb 	bl	404580 <_nl_make_l10nflist>
  4049d8:	f94053e1 	ldr	x1, [sp, #160]
  4049dc:	b940abea 	ldr	w10, [sp, #168]
  4049e0:	f8337820 	str	x0, [x1, x19, lsl #3]
  4049e4:	b5fffc9b 	cbnz	x27, 404974 <_nl_make_l10nflist+0x3f4>
  4049e8:	aa1903fb 	mov	x27, x25
  4049ec:	b4fff535 	cbz	x21, 404890 <_nl_make_l10nflist+0x310>
  4049f0:	17ffffeb 	b	40499c <_nl_make_l10nflist+0x41c>
  4049f4:	d280001a 	mov	x26, #0x0                   	// #0
  4049f8:	aa1303e0 	mov	x0, x19
  4049fc:	940040d5 	bl	414d50 <__free>
  404a00:	aa1a03e0 	mov	x0, x26
  404a04:	a9427bfd 	ldp	x29, x30, [sp, #32]
  404a08:	a94353f3 	ldp	x19, x20, [sp, #48]
  404a0c:	a9445bf5 	ldp	x21, x22, [sp, #64]
  404a10:	a94563f7 	ldp	x23, x24, [sp, #80]
  404a14:	a9466bf9 	ldp	x25, x26, [sp, #96]
  404a18:	a94773fb 	ldp	x27, x28, [sp, #112]
  404a1c:	9102c3ff 	add	sp, sp, #0xb0
  404a20:	d65f03c0 	ret
  404a24:	f9404be1 	ldr	x1, [sp, #144]
  404a28:	528005c2 	mov	w2, #0x2e                  	// #46
  404a2c:	38001402 	strb	w2, [x0], #1
  404a30:	94004ad4 	bl	417580 <__stpcpy>
  404a34:	b940afe1 	ldr	w1, [sp, #172]
  404a38:	34ffe5a1 	cbz	w1, 4046ec <_nl_make_l10nflist+0x16c>
  404a3c:	f9405be1 	ldr	x1, [sp, #176]
  404a40:	52800802 	mov	w2, #0x40                  	// #64
  404a44:	38001402 	strb	w2, [x0], #1
  404a48:	94004ace 	bl	417580 <__stpcpy>
  404a4c:	17ffff28 	b	4046ec <_nl_make_l10nflist+0x16c>
  404a50:	f94047e1 	ldr	x1, [sp, #136]
  404a54:	528005c2 	mov	w2, #0x2e                  	// #46
  404a58:	38001402 	strb	w2, [x0], #1
  404a5c:	94004ac9 	bl	417580 <__stpcpy>
  404a60:	17ffff1f 	b	4046dc <_nl_make_l10nflist+0x15c>
  404a64:	f9404fe1 	ldr	x1, [sp, #152]
  404a68:	52800be2 	mov	w2, #0x5f                  	// #95
  404a6c:	38001402 	strb	w2, [x0], #1
  404a70:	94004ac4 	bl	417580 <__stpcpy>
  404a74:	17ffff18 	b	4046d4 <_nl_make_l10nflist+0x154>
  404a78:	f94043e0 	ldr	x0, [sp, #128]
  404a7c:	f900001a 	str	x26, [x0]
  404a80:	f94053e0 	ldr	x0, [sp, #160]
  404a84:	f9000f40 	str	x0, [x26, #24]
  404a88:	17ffff69 	b	40482c <_nl_make_l10nflist+0x2ac>
  404a8c:	2a1403f8 	mov	w24, w20
  404a90:	17ffff77 	b	40486c <_nl_make_l10nflist+0x2ec>
  404a94:	d2800500 	mov	x0, #0x28                  	// #40
  404a98:	b900abe4 	str	w4, [sp, #168]
  404a9c:	94003f4d 	bl	4147d0 <__libc_malloc>
  404aa0:	aa0003fa 	mov	x26, x0
  404aa4:	b940abe4 	ldr	w4, [sp, #168]
  404aa8:	b4000080 	cbz	x0, 404ab8 <_nl_make_l10nflist+0x538>
  404aac:	2a0403e0 	mov	w0, w4
  404ab0:	f9000353 	str	x19, [x26]
  404ab4:	17ffff58 	b	404814 <_nl_make_l10nflist+0x294>
  404ab8:	aa1303e0 	mov	x0, x19
  404abc:	d280001a 	mov	x26, #0x0                   	// #0
  404ac0:	940040a4 	bl	414d50 <__free>
  404ac4:	a94773fb 	ldp	x27, x28, [sp, #112]
  404ac8:	17ffff88 	b	4048e8 <_nl_make_l10nflist+0x368>
  404acc:	d280001a 	mov	x26, #0x0                   	// #0
  404ad0:	17ffff86 	b	4048e8 <_nl_make_l10nflist+0x368>

0000000000404ad4 <_nl_normalize_codeset>:
  404ad4:	a9bd7bfd 	stp	x29, x30, [sp, #-48]!
  404ad8:	910003fd 	mov	x29, sp
  404adc:	b4000861 	cbz	x1, 404be8 <_nl_normalize_codeset+0x114>
  404ae0:	a90153f3 	stp	x19, x20, [sp, #16]
  404ae4:	aa0103f4 	mov	x20, x1
  404ae8:	aa0003e3 	mov	x3, x0
  404aec:	a9025bf5 	stp	x21, x22, [sp, #32]
  404af0:	b0000476 	adrp	x22, 491000 <tunable_list+0x528>
  404af4:	912802c1 	add	x1, x22, #0xa00
  404af8:	aa0003f5 	mov	x21, x0
  404afc:	8b000285 	add	x5, x20, x0
  404b00:	52800024 	mov	w4, #0x1                   	// #1
  404b04:	d2800000 	mov	x0, #0x0                   	// #0
  404b08:	f9403433 	ldr	x19, [x1, #104]
  404b0c:	d503201f 	nop
  404b10:	91000463 	add	x3, x3, #0x1
  404b14:	385ff062 	ldurb	w2, [x3, #-1]
  404b18:	5100c041 	sub	w1, w2, #0x30
  404b1c:	d37f1c42 	ubfiz	x2, x2, #1, #8
  404b20:	78626a62 	ldrh	w2, [x19, x2]
  404b24:	36180082 	tbz	w2, #3, 404b34 <_nl_normalize_codeset+0x60>
  404b28:	7100283f 	cmp	w1, #0xa
  404b2c:	91000400 	add	x0, x0, #0x1
  404b30:	1a9f3084 	csel	w4, w4, wzr, cc  // cc = lo, ul, last
  404b34:	eb0300bf 	cmp	x5, x3
  404b38:	54fffec1 	b.ne	404b10 <_nl_normalize_codeset+0x3c>  // b.any
  404b3c:	35000424 	cbnz	w4, 404bc0 <_nl_normalize_codeset+0xec>
  404b40:	91000400 	add	x0, x0, #0x1
  404b44:	94003f23 	bl	4147d0 <__libc_malloc>
  404b48:	aa0003e4 	mov	x4, x0
  404b4c:	b40005a0 	cbz	x0, 404c00 <_nl_normalize_codeset+0x12c>
  404b50:	912802d6 	add	x22, x22, #0xa00
  404b54:	d2800003 	mov	x3, #0x0                   	// #0
  404b58:	f9403ac8 	ldr	x8, [x22, #112]
  404b5c:	14000007 	b	404b78 <_nl_normalize_codeset+0xa4>
  404b60:	b8677901 	ldr	w1, [x8, x7, lsl #2]
  404b64:	380014a1 	strb	w1, [x5], #1
  404b68:	aa0503e4 	mov	x4, x5
  404b6c:	91000463 	add	x3, x3, #0x1
  404b70:	eb03029f 	cmp	x20, x3
  404b74:	540001c9 	b.ls	404bac <_nl_normalize_codeset+0xd8>  // b.plast
  404b78:	38636aa7 	ldrb	w7, [x21, x3]
  404b7c:	aa0403e5 	mov	x5, x4
  404b80:	5100c0e1 	sub	w1, w7, #0x30
  404b84:	d37f1ce6 	ubfiz	x6, x7, #1, #8
  404b88:	78666a66 	ldrh	w6, [x19, x6]
  404b8c:	3757fea6 	tbnz	w6, #10, 404b60 <_nl_normalize_codeset+0x8c>
  404b90:	7100243f 	cmp	w1, #0x9
  404b94:	54fffec8 	b.hi	404b6c <_nl_normalize_codeset+0x98>  // b.pmore
  404b98:	380014a7 	strb	w7, [x5], #1
  404b9c:	91000463 	add	x3, x3, #0x1
  404ba0:	aa0503e4 	mov	x4, x5
  404ba4:	eb03029f 	cmp	x20, x3
  404ba8:	54fffe88 	b.hi	404b78 <_nl_normalize_codeset+0xa4>  // b.pmore
  404bac:	a94153f3 	ldp	x19, x20, [sp, #16]
  404bb0:	a9425bf5 	ldp	x21, x22, [sp, #32]
  404bb4:	3900009f 	strb	wzr, [x4]
  404bb8:	a8c37bfd 	ldp	x29, x30, [sp], #48
  404bbc:	d65f03c0 	ret
  404bc0:	91001000 	add	x0, x0, #0x4
  404bc4:	94003f03 	bl	4147d0 <__libc_malloc>
  404bc8:	b40001c0 	cbz	x0, 404c00 <_nl_normalize_codeset+0x12c>
  404bcc:	aa0003e4 	mov	x4, x0
  404bd0:	912802c1 	add	x1, x22, #0xa00
  404bd4:	528e6d22 	mov	w2, #0x7369                	// #29545
  404bd8:	72a00de2 	movk	w2, #0x6f, lsl #16
  404bdc:	b8003482 	str	w2, [x4], #3
  404be0:	f9403433 	ldr	x19, [x1, #104]
  404be4:	17ffffdb 	b	404b50 <_nl_normalize_codeset+0x7c>
  404be8:	d2800080 	mov	x0, #0x4                   	// #4
  404bec:	94003ef9 	bl	4147d0 <__libc_malloc>
  404bf0:	b5000100 	cbnz	x0, 404c10 <_nl_normalize_codeset+0x13c>
  404bf4:	d2800000 	mov	x0, #0x0                   	// #0
  404bf8:	a8c37bfd 	ldp	x29, x30, [sp], #48
  404bfc:	d65f03c0 	ret
  404c00:	d2800000 	mov	x0, #0x0                   	// #0
  404c04:	a94153f3 	ldp	x19, x20, [sp, #16]
  404c08:	a9425bf5 	ldp	x21, x22, [sp, #32]
  404c0c:	17fffffb 	b	404bf8 <_nl_normalize_codeset+0x124>
  404c10:	aa0003e4 	mov	x4, x0
  404c14:	528e6d21 	mov	w1, #0x7369                	// #29545
  404c18:	72a00de1 	movk	w1, #0x6f, lsl #16
  404c1c:	b8003481 	str	w1, [x4], #3
  404c20:	17ffffe5 	b	404bb4 <_nl_normalize_codeset+0xe0>
  404c24:	d503201f 	nop
  404c28:	d503201f 	nop
  404c2c:	d503201f 	nop

0000000000404c30 <_nl_explode_name>:
  404c30:	a9ba7bfd 	stp	x29, x30, [sp, #-96]!
  404c34:	aa0003e7 	mov	x7, x0
  404c38:	52800808 	mov	w8, #0x40                  	// #64
  404c3c:	910003fd 	mov	x29, sp
  404c40:	a90153f3 	stp	x19, x20, [sp, #16]
  404c44:	a9025bf5 	stp	x21, x22, [sp, #32]
  404c48:	aa0403f5 	mov	x21, x4
  404c4c:	f900005f 	str	xzr, [x2]
  404c50:	f900007f 	str	xzr, [x3]
  404c54:	f900009f 	str	xzr, [x4]
  404c58:	f90000bf 	str	xzr, [x5]
  404c5c:	f9000020 	str	x0, [x1]
  404c60:	39400006 	ldrb	w6, [x0]
  404c64:	71017cdf 	cmp	w6, #0x5f
  404c68:	7a4018c4 	ccmp	w6, #0x0, #0x4, ne  // ne = any
  404c6c:	540000e1 	b.ne	404c88 <_nl_explode_name+0x58>  // b.any
  404c70:	1400002a 	b	404d18 <_nl_explode_name+0xe8>
  404c74:	394004e6 	ldrb	w6, [x7, #1]
  404c78:	71017cdf 	cmp	w6, #0x5f
  404c7c:	7a4018c4 	ccmp	w6, #0x0, #0x4, ne  // ne = any
  404c80:	54000500 	b.eq	404d20 <_nl_explode_name+0xf0>  // b.none
  404c84:	aa0103e7 	mov	x7, x1
  404c88:	7100b8df 	cmp	w6, #0x2e
  404c8c:	910004e1 	add	x1, x7, #0x1
  404c90:	7a4810c4 	ccmp	w6, w8, #0x4, ne  // ne = any
  404c94:	54ffff01 	b.ne	404c74 <_nl_explode_name+0x44>  // b.any
  404c98:	eb07001f 	cmp	x0, x7
  404c9c:	540003e0 	b.eq	404d18 <_nl_explode_name+0xe8>  // b.none
  404ca0:	394000e6 	ldrb	w6, [x7]
  404ca4:	52800013 	mov	w19, #0x0                   	// #0
  404ca8:	7100b8df 	cmp	w6, #0x2e
  404cac:	54000660 	b.eq	404d78 <_nl_explode_name+0x148>  // b.none
  404cb0:	710100df 	cmp	w6, #0x40
  404cb4:	54000101 	b.ne	404cd4 <_nl_explode_name+0xa4>  // b.any
  404cb8:	aa0703e0 	mov	x0, x7
  404cbc:	321d0261 	orr	w1, w19, #0x8
  404cc0:	3800141f 	strb	wzr, [x0], #1
  404cc4:	f9000040 	str	x0, [x2]
  404cc8:	394004e0 	ldrb	w0, [x7, #1]
  404ccc:	7100001f 	cmp	w0, #0x0
  404cd0:	1a931033 	csel	w19, w1, w19, ne  // ne = any
  404cd4:	f9400060 	ldr	x0, [x3]
  404cd8:	b40000a0 	cbz	x0, 404cec <_nl_explode_name+0xbc>
  404cdc:	39400001 	ldrb	w1, [x0]
  404ce0:	121d7a60 	and	w0, w19, #0xfffffffb
  404ce4:	7100003f 	cmp	w1, #0x0
  404ce8:	1a930013 	csel	w19, w0, w19, eq  // eq = none
  404cec:	f94002a0 	ldr	x0, [x21]
  404cf0:	b40000a0 	cbz	x0, 404d04 <_nl_explode_name+0xd4>
  404cf4:	39400001 	ldrb	w1, [x0]
  404cf8:	121e7a60 	and	w0, w19, #0xfffffffd
  404cfc:	7100003f 	cmp	w1, #0x0
  404d00:	1a930013 	csel	w19, w0, w19, eq  // eq = none
  404d04:	2a1303e0 	mov	w0, w19
  404d08:	a94153f3 	ldp	x19, x20, [sp, #16]
  404d0c:	a9425bf5 	ldp	x21, x22, [sp, #32]
  404d10:	a8c67bfd 	ldp	x29, x30, [sp], #96
  404d14:	d65f03c0 	ret
  404d18:	52800013 	mov	w19, #0x0                   	// #0
  404d1c:	17ffffee 	b	404cd4 <_nl_explode_name+0xa4>
  404d20:	eb01001f 	cmp	x0, x1
  404d24:	54ffffa0 	b.eq	404d18 <_nl_explode_name+0xe8>  // b.none
  404d28:	71017cdf 	cmp	w6, #0x5f
  404d2c:	54000861 	b.ne	404e38 <_nl_explode_name+0x208>  // b.any
  404d30:	3900003f 	strb	wzr, [x1]
  404d34:	910008e7 	add	x7, x7, #0x2
  404d38:	f9000067 	str	x7, [x3]
  404d3c:	39400426 	ldrb	w6, [x1, #1]
  404d40:	121978c0 	and	w0, w6, #0xffffffbf
  404d44:	7100b8df 	cmp	w6, #0x2e
  404d48:	12001c00 	and	w0, w0, #0xff
  404d4c:	7a401804 	ccmp	w0, #0x0, #0x4, ne  // ne = any
  404d50:	540000e0 	b.eq	404d6c <_nl_explode_name+0x13c>  // b.none
  404d54:	d503201f 	nop
  404d58:	38401ce6 	ldrb	w6, [x7, #1]!
  404d5c:	7100b8df 	cmp	w6, #0x2e
  404d60:	121978c0 	and	w0, w6, #0xffffffbf
  404d64:	7a401804 	ccmp	w0, #0x0, #0x4, ne  // ne = any
  404d68:	54ffff81 	b.ne	404d58 <_nl_explode_name+0x128>  // b.any
  404d6c:	52800093 	mov	w19, #0x4                   	// #4
  404d70:	7100b8df 	cmp	w6, #0x2e
  404d74:	54fff9e1 	b.ne	404cb0 <_nl_explode_name+0x80>  // b.any
  404d78:	aa0703e0 	mov	x0, x7
  404d7c:	a9036bf9 	stp	x25, x26, [sp, #48]
  404d80:	528017e1 	mov	w1, #0xbf                  	// #191
  404d84:	321f0279 	orr	w25, w19, #0x2
  404d88:	3800141f 	strb	wzr, [x0], #1
  404d8c:	f90002a0 	str	x0, [x21]
  404d90:	394004e6 	ldrb	w6, [x7, #1]
  404d94:	6a0100df 	tst	w6, w1
  404d98:	54000360 	b.eq	404e04 <_nl_explode_name+0x1d4>  // b.none
  404d9c:	aa0003f4 	mov	x20, x0
  404da0:	aa1403f6 	mov	x22, x20
  404da4:	38401e84 	ldrb	w4, [x20, #1]!
  404da8:	528017e1 	mov	w1, #0xbf                  	// #191
  404dac:	6a01009f 	tst	w4, w1
  404db0:	54ffff81 	b.ne	404da0 <_nl_explode_name+0x170>  // b.any
  404db4:	f90027e5 	str	x5, [sp, #72]
  404db8:	eb14001f 	cmp	x0, x20
  404dbc:	54000240 	b.eq	404e04 <_nl_explode_name+0x1d4>  // b.none
  404dc0:	cb0702c1 	sub	x1, x22, x7
  404dc4:	a9050fe2 	stp	x2, x3, [sp, #80]
  404dc8:	97ffff43 	bl	404ad4 <_nl_normalize_codeset>
  404dcc:	f94027e5 	ldr	x5, [sp, #72]
  404dd0:	aa0003fa 	mov	x26, x0
  404dd4:	f90000a0 	str	x0, [x5]
  404dd8:	b4000360 	cbz	x0, 404e44 <_nl_explode_name+0x214>
  404ddc:	aa0003e1 	mov	x1, x0
  404de0:	f94002a0 	ldr	x0, [x21]
  404de4:	94004567 	bl	416380 <strcmp>
  404de8:	a9450fe2 	ldp	x2, x3, [sp, #80]
  404dec:	34000140 	cbz	w0, 404e14 <_nl_explode_name+0x1e4>
  404df0:	394006c6 	ldrb	w6, [x22, #1]
  404df4:	32000673 	orr	w19, w19, #0x3
  404df8:	aa1403e7 	mov	x7, x20
  404dfc:	a9436bf9 	ldp	x25, x26, [sp, #48]
  404e00:	17ffffac 	b	404cb0 <_nl_explode_name+0x80>
  404e04:	2a1903f3 	mov	w19, w25
  404e08:	aa0003e7 	mov	x7, x0
  404e0c:	a9436bf9 	ldp	x25, x26, [sp, #48]
  404e10:	17ffffa8 	b	404cb0 <_nl_explode_name+0x80>
  404e14:	aa1a03e0 	mov	x0, x26
  404e18:	a9048fe2 	stp	x2, x3, [sp, #72]
  404e1c:	94003fcd 	bl	414d50 <__free>
  404e20:	2a1903f3 	mov	w19, w25
  404e24:	394006c6 	ldrb	w6, [x22, #1]
  404e28:	aa1403e7 	mov	x7, x20
  404e2c:	a9436bf9 	ldp	x25, x26, [sp, #48]
  404e30:	a9448fe2 	ldp	x2, x3, [sp, #72]
  404e34:	17ffff9f 	b	404cb0 <_nl_explode_name+0x80>
  404e38:	aa0103e7 	mov	x7, x1
  404e3c:	52800013 	mov	w19, #0x0                   	// #0
  404e40:	17ffff9a 	b	404ca8 <_nl_explode_name+0x78>
  404e44:	12800013 	mov	w19, #0xffffffff            	// #-1
  404e48:	a9436bf9 	ldp	x25, x26, [sp, #48]
  404e4c:	17ffffae 	b	404d04 <_nl_explode_name+0xd4>

0000000000404e50 <__gettext_free_exp>:
  404e50:	b4000340 	cbz	x0, 404eb8 <__gettext_free_exp+0x68>
  404e54:	a9be7bfd 	stp	x29, x30, [sp, #-32]!
  404e58:	910003fd 	mov	x29, sp
  404e5c:	f9000bf3 	str	x19, [sp, #16]
  404e60:	aa0003f3 	mov	x19, x0
  404e64:	b9400000 	ldr	w0, [x0]
  404e68:	7100081f 	cmp	w0, #0x2
  404e6c:	54000160 	b.eq	404e98 <__gettext_free_exp+0x48>  // b.none
  404e70:	71000c1f 	cmp	w0, #0x3
  404e74:	540000e0 	b.eq	404e90 <__gettext_free_exp+0x40>  // b.none
  404e78:	7100041f 	cmp	w0, #0x1
  404e7c:	54000120 	b.eq	404ea0 <__gettext_free_exp+0x50>  // b.none
  404e80:	aa1303e0 	mov	x0, x19
  404e84:	f9400bf3 	ldr	x19, [sp, #16]
  404e88:	a8c27bfd 	ldp	x29, x30, [sp], #32
  404e8c:	14003fb1 	b	414d50 <__free>
  404e90:	f9400e60 	ldr	x0, [x19, #24]
  404e94:	97ffffef 	bl	404e50 <__gettext_free_exp>
  404e98:	f9400a60 	ldr	x0, [x19, #16]
  404e9c:	97ffffed 	bl	404e50 <__gettext_free_exp>
  404ea0:	f9400660 	ldr	x0, [x19, #8]
  404ea4:	97ffffeb 	bl	404e50 <__gettext_free_exp>
  404ea8:	aa1303e0 	mov	x0, x19
  404eac:	f9400bf3 	ldr	x19, [sp, #16]
  404eb0:	a8c27bfd 	ldp	x29, x30, [sp], #32
  404eb4:	14003fa7 	b	414d50 <__free>
  404eb8:	d65f03c0 	ret
  404ebc:	d503201f 	nop

0000000000404ec0 <__gettextparse>:
  404ec0:	d11f03ff 	sub	sp, sp, #0x7c0
  404ec4:	b0000463 	adrp	x3, 491000 <tunable_list+0x528>
  404ec8:	9102c3e2 	add	x2, sp, #0xb0
  404ecc:	a9007bfd 	stp	x29, x30, [sp]
  404ed0:	910003fd 	mov	x29, sp
  404ed4:	f945f861 	ldr	x1, [x3, #3056]
  404ed8:	a90153f3 	stp	x19, x20, [sp, #16]
  404edc:	52800013 	mov	w19, #0x0                   	// #0
  404ee0:	a9025bf5 	stp	x21, x22, [sp, #32]
  404ee4:	900002b5 	adrp	x21, 458000 <free_modules_db+0x40>
  404ee8:	912fc2a4 	add	x4, x21, #0xbf0
  404eec:	a90363f7 	stp	x23, x24, [sp, #48]
  404ef0:	911bc3f6 	add	x22, sp, #0x6f0
  404ef4:	91042094 	add	x20, x4, #0x108
  404ef8:	a9046bf9 	stp	x25, x26, [sp, #64]
  404efc:	900002b7 	adrp	x23, 458000 <free_modules_db+0x40>
  404f00:	12800039 	mov	w25, #0xfffffffe            	// #-2
  404f04:	a90573fb 	stp	x27, x28, [sp, #80]
  404f08:	aa1603fc 	mov	x28, x22
  404f0c:	d280191b 	mov	x27, #0xc8                  	// #200
  404f10:	f90037e4 	str	x4, [sp, #104]
  404f14:	a90803e3 	stp	x3, x0, [sp, #128]
  404f18:	f9400020 	ldr	x0, [x1]
  404f1c:	f903dfe0 	str	x0, [sp, #1976]
  404f20:	d2800000 	mov	x0, #0x0                   	// #0
  404f24:	aa1603e1 	mov	x1, x22
  404f28:	f90033e2 	str	x2, [sp, #96]
  404f2c:	b90077ff 	str	wzr, [sp, #116]
  404f30:	391bc3ff 	strb	wzr, [sp, #1776]
  404f34:	913722e0 	add	x0, x23, #0xdc8
  404f38:	93407e6a 	sxtw	x10, w19
  404f3c:	38f3c800 	ldrsb	w0, [x0, w19, sxtw]
  404f40:	2a0003e9 	mov	w9, w0
  404f44:	3100101f 	cmn	w0, #0x4
  404f48:	540012c0 	b.eq	4051a0 <__gettextparse+0x2e0>  // b.none
  404f4c:	31000b3f 	cmn	w25, #0x2
  404f50:	54002180 	b.eq	405380 <__gettextparse+0x4c0>  // b.none
  404f54:	7100033f 	cmp	w25, #0x0
  404f58:	540020ad 	b.le	40536c <__gettextparse+0x4ac>
  404f5c:	7104033f 	cmp	w25, #0x100
  404f60:	54002780 	b.eq	405450 <__gettextparse+0x590>  // b.none
  404f64:	f94037e3 	ldr	x3, [sp, #104]
  404f68:	38f9c86c 	ldrsb	w12, [x3, w25, sxtw]
  404f6c:	0b0c0009 	add	w9, w0, w12
  404f70:	7100e13f 	cmp	w9, #0x38
  404f74:	54001168 	b.hi	4051a0 <__gettextparse+0x2e0>  // b.pmore
  404f78:	912fc2a3 	add	x3, x21, #0xbf0
  404f7c:	91042065 	add	x5, x3, #0x108
  404f80:	38e9c8a5 	ldrsb	w5, [x5, w9, sxtw]
  404f84:	6b0c00bf 	cmp	w5, w12
  404f88:	540010c1 	b.ne	4051a0 <__gettextparse+0x2e0>  // b.any
  404f8c:	91052063 	add	x3, x3, #0x148
  404f90:	38e9c873 	ldrsb	w19, [x3, w9, sxtw]
  404f94:	2a1303e0 	mov	w0, w19
  404f98:	4b1303e3 	neg	w3, w19
  404f9c:	7100027f 	cmp	w19, #0x0
  404fa0:	5400018d 	b.le	404fd0 <__gettextparse+0x110>
  404fa4:	b94077e3 	ldr	w3, [sp, #116]
  404fa8:	aa0103e5 	mov	x5, x1
  404fac:	91002042 	add	x2, x2, #0x8
  404fb0:	12800039 	mov	w25, #0xfffffffe            	// #-2
  404fb4:	7100007f 	cmp	w3, #0x0
  404fb8:	1a9f07e1 	cset	w1, ne  // ne = any
  404fbc:	4b010061 	sub	w1, w3, w1
  404fc0:	b90077e1 	str	w1, [sp, #116]
  404fc4:	f9404fe1 	ldr	x1, [sp, #152]
  404fc8:	f9000041 	str	x1, [x2]
  404fcc:	1400003c 	b	4050bc <__gettextparse+0x1fc>
  404fd0:	912fc2a0 	add	x0, x21, #0xbf0
  404fd4:	52800029 	mov	w9, #0x1                   	// #1
  404fd8:	9106a000 	add	x0, x0, #0x1a8
  404fdc:	93407c78 	sxtw	x24, w3
  404fe0:	38e3c813 	ldrsb	w19, [x0, w3, sxtw]
  404fe4:	4b130120 	sub	w0, w9, w19
  404fe8:	f860d840 	ldr	x0, [x2, w0, sxtw #3]
  404fec:	7100207f 	cmp	w3, #0x8
  404ff0:	54001640 	b.eq	4052b8 <__gettextparse+0x3f8>  // b.none
  404ff4:	5400188c 	b.gt	405304 <__gettextparse+0x444>
  404ff8:	7100147f 	cmp	w3, #0x5
  404ffc:	540023a0 	b.eq	405470 <__gettextparse+0x5b0>  // b.none
  405000:	5400154c 	b.gt	4052a8 <__gettextparse+0x3e8>
  405004:	71000c7f 	cmp	w3, #0x3
  405008:	540025a0 	b.eq	4054bc <__gettextparse+0x5fc>  // b.none
  40500c:	7100107f 	cmp	w3, #0x4
  405010:	54001141 	b.ne	405238 <__gettextparse+0x378>  // b.any
  405014:	f85f0043 	ldur	x3, [x2, #-16]
  405018:	f940005a 	ldr	x26, [x2]
  40501c:	f100007f 	cmp	x3, #0x0
  405020:	fa401b44 	ccmp	x26, #0x0, #0x4, ne  // ne = any
  405024:	54001ec0 	b.eq	4053fc <__gettextparse+0x53c>  // b.none
  405028:	d2800400 	mov	x0, #0x20                  	// #32
  40502c:	f9003fe3 	str	x3, [sp, #120]
  405030:	f9004be1 	str	x1, [sp, #144]
  405034:	f90053e2 	str	x2, [sp, #160]
  405038:	94003de6 	bl	4147d0 <__libc_malloc>
  40503c:	f9403fe3 	ldr	x3, [sp, #120]
  405040:	f9404be1 	ldr	x1, [sp, #144]
  405044:	f94053e2 	ldr	x2, [sp, #160]
  405048:	b4001da0 	cbz	x0, 4053fc <__gettextparse+0x53c>
  40504c:	a900e803 	stp	x3, x26, [x0, #8]
  405050:	d2800043 	mov	x3, #0x2                   	// #2
  405054:	f2c001e3 	movk	x3, #0xf, lsl #32
  405058:	f9000003 	str	x3, [x0]
  40505c:	d503201f 	nop
  405060:	912fc2a9 	add	x9, x21, #0xbf0
  405064:	cb33cc4b 	sub	x11, x2, w19, sxtw #3
  405068:	9106e12c 	add	x12, x9, #0x1b8
  40506c:	cb338025 	sub	x5, x1, w19, sxtb
  405070:	f0000283 	adrp	x3, 458000 <free_modules_db+0x40>
  405074:	91370063 	add	x3, x3, #0xdc0
  405078:	f9000560 	str	x0, [x11, #8]
  40507c:	91002162 	add	x2, x11, #0x8
  405080:	38f86981 	ldrsb	w1, [x12, x24]
  405084:	39c000aa 	ldrsb	w10, [x5]
  405088:	51004020 	sub	w0, w1, #0x10
  40508c:	38e0c861 	ldrsb	w1, [x3, w0, sxtw]
  405090:	0b0a0021 	add	w1, w1, w10
  405094:	7100e03f 	cmp	w1, #0x38
  405098:	540000a8 	b.hi	4050ac <__gettextparse+0x1ec>  // b.pmore
  40509c:	91042123 	add	x3, x9, #0x108
  4050a0:	38e1c863 	ldrsb	w3, [x3, w1, sxtw]
  4050a4:	6b0a007f 	cmp	w3, w10
  4050a8:	540018a0 	b.eq	4053bc <__gettextparse+0x4fc>  // b.none
  4050ac:	912fc2a1 	add	x1, x21, #0xbf0
  4050b0:	91072021 	add	x1, x1, #0x1c8
  4050b4:	38e0c820 	ldrsb	w0, [x1, w0, sxtw]
  4050b8:	2a0003f3 	mov	w19, w0
  4050bc:	d1000769 	sub	x9, x27, #0x1
  4050c0:	910004a1 	add	x1, x5, #0x1
  4050c4:	8b090389 	add	x9, x28, x9
  4050c8:	390004a0 	strb	w0, [x5, #1]
  4050cc:	eb09003f 	cmp	x1, x9
  4050d0:	54000603 	b.cc	405190 <__gettextparse+0x2d0>  // b.lo, b.ul, b.last
  4050d4:	cb1c0020 	sub	x0, x1, x28
  4050d8:	aa0003e1 	mov	x1, x0
  4050dc:	f9003fe1 	str	x1, [sp, #120]
  4050e0:	9100043a 	add	x26, x1, #0x1
  4050e4:	d284e1e0 	mov	x0, #0x270f                	// #9999
  4050e8:	eb00037f 	cmp	x27, x0
  4050ec:	540033ec 	b.gt	405768 <__gettextparse+0x8a8>
  4050f0:	d37ffb7b 	lsl	x27, x27, #1
  4050f4:	d284e200 	mov	x0, #0x2710                	// #10000
  4050f8:	eb00037f 	cmp	x27, x0
  4050fc:	9a80d37b 	csel	x27, x27, x0, le
  405100:	8b1b0f60 	add	x0, x27, x27, lsl #3
  405104:	91001c00 	add	x0, x0, #0x7
  405108:	94003db2 	bl	4147d0 <__libc_malloc>
  40510c:	aa0003f8 	mov	x24, x0
  405110:	b40032c0 	cbz	x0, 405768 <__gettextparse+0x8a8>
  405114:	aa1a03e2 	mov	x2, x26
  405118:	aa1c03e1 	mov	x1, x28
  40511c:	97ffec65 	bl	4002b0 <.plt+0x10>
  405120:	91001f69 	add	x9, x27, #0x7
  405124:	d37df342 	lsl	x2, x26, #3
  405128:	927df129 	and	x9, x9, #0xfffffffffffffff8
  40512c:	f94033e1 	ldr	x1, [sp, #96]
  405130:	8b090309 	add	x9, x24, x9
  405134:	aa0903e0 	mov	x0, x9
  405138:	f90033e2 	str	x2, [sp, #96]
  40513c:	97ffec5d 	bl	4002b0 <.plt+0x10>
  405140:	aa0003e9 	mov	x9, x0
  405144:	eb16039f 	cmp	x28, x22
  405148:	f94033e2 	ldr	x2, [sp, #96]
  40514c:	540000e0 	b.eq	405168 <__gettextparse+0x2a8>  // b.none
  405150:	aa1c03e0 	mov	x0, x28
  405154:	f90033e9 	str	x9, [sp, #96]
  405158:	f9004be2 	str	x2, [sp, #144]
  40515c:	94003efd 	bl	414d50 <__free>
  405160:	f94033e9 	ldr	x9, [sp, #96]
  405164:	f9404be2 	ldr	x2, [sp, #144]
  405168:	d1000760 	sub	x0, x27, #0x1
  40516c:	f9403fe1 	ldr	x1, [sp, #120]
  405170:	d1002042 	sub	x2, x2, #0x8
  405174:	8b000300 	add	x0, x24, x0
  405178:	8b020122 	add	x2, x9, x2
  40517c:	8b010301 	add	x1, x24, x1
  405180:	eb00003f 	cmp	x1, x0
  405184:	54002ec2 	b.cs	40575c <__gettextparse+0x89c>  // b.hs, b.nlast
  405188:	aa1803fc 	mov	x28, x24
  40518c:	f90033e9 	str	x9, [sp, #96]
  405190:	7100267f 	cmp	w19, #0x9
  405194:	54ffed01 	b.ne	404f34 <__gettextparse+0x74>  // b.any
  405198:	52800013 	mov	w19, #0x0                   	// #0
  40519c:	1400002f 	b	405258 <__gettextparse+0x398>
  4051a0:	912fc2a3 	add	x3, x21, #0xbf0
  4051a4:	91062063 	add	x3, x3, #0x188
  4051a8:	38ea6863 	ldrsb	w3, [x3, x10]
  4051ac:	35fff123 	cbnz	w3, 404fd0 <__gettextparse+0x110>
  4051b0:	b94077e3 	ldr	w3, [sp, #116]
  4051b4:	71000c7f 	cmp	w3, #0x3
  4051b8:	54000081 	b.ne	4051c8 <__gettextparse+0x308>  // b.any
  4051bc:	7100033f 	cmp	w25, #0x0
  4051c0:	54000dcc 	b.gt	405378 <__gettextparse+0x4b8>
  4051c4:	54000480 	b.eq	405254 <__gettextparse+0x394>  // b.none
  4051c8:	f94037e3 	ldr	x3, [sp, #104]
  4051cc:	913722e5 	add	x5, x23, #0xdc8
  4051d0:	91052069 	add	x9, x3, #0x148
  4051d4:	14000006 	b	4051ec <__gettextparse+0x32c>
  4051d8:	eb1c003f 	cmp	x1, x28
  4051dc:	540003c0 	b.eq	405254 <__gettextparse+0x394>  // b.none
  4051e0:	38dffc20 	ldrsb	w0, [x1, #-1]!
  4051e4:	d1002042 	sub	x2, x2, #0x8
  4051e8:	38e0c8a0 	ldrsb	w0, [x5, w0, sxtw]
  4051ec:	3100101f 	cmn	w0, #0x4
  4051f0:	54ffff40 	b.eq	4051d8 <__gettextparse+0x318>  // b.none
  4051f4:	11000400 	add	w0, w0, #0x1
  4051f8:	7100e01f 	cmp	w0, #0x38
  4051fc:	54fffee8 	b.hi	4051d8 <__gettextparse+0x318>  // b.pmore
  405200:	38e0ca83 	ldrsb	w3, [x20, w0, sxtw]
  405204:	7100047f 	cmp	w3, #0x1
  405208:	54fffe81 	b.ne	4051d8 <__gettextparse+0x318>  // b.any
  40520c:	38e0c920 	ldrsb	w0, [x9, w0, sxtw]
  405210:	2a0003f3 	mov	w19, w0
  405214:	7100001f 	cmp	w0, #0x0
  405218:	54fffe0d 	b.le	4051d8 <__gettextparse+0x318>
  40521c:	aa0103e5 	mov	x5, x1
  405220:	52800061 	mov	w1, #0x3                   	// #3
  405224:	b90077e1 	str	w1, [sp, #116]
  405228:	91002042 	add	x2, x2, #0x8
  40522c:	f9404fe1 	ldr	x1, [sp, #152]
  405230:	f9000041 	str	x1, [x2]
  405234:	17ffffa2 	b	4050bc <__gettextparse+0x1fc>
  405238:	7100087f 	cmp	w3, #0x2
  40523c:	54fff121 	b.ne	405060 <__gettextparse+0x1a0>  // b.any
  405240:	f9400043 	ldr	x3, [x2]
  405244:	b4000083 	cbz	x3, 405254 <__gettextparse+0x394>
  405248:	f94047e4 	ldr	x4, [sp, #136]
  40524c:	f9000483 	str	x3, [x4, #8]
  405250:	17ffff84 	b	405060 <__gettextparse+0x1a0>
  405254:	52800033 	mov	w19, #0x1                   	// #1
  405258:	eb16039f 	cmp	x28, x22
  40525c:	54000060 	b.eq	405268 <__gettextparse+0x3a8>  // b.none
  405260:	aa1c03e0 	mov	x0, x28
  405264:	94003ebb 	bl	414d50 <__free>
  405268:	f94043e0 	ldr	x0, [sp, #128]
  40526c:	f945f815 	ldr	x21, [x0, #3056]
  405270:	f943dfe0 	ldr	x0, [sp, #1976]
  405274:	f94002a1 	ldr	x1, [x21]
  405278:	eb010000 	subs	x0, x0, x1
  40527c:	d2800001 	mov	x1, #0x0                   	// #0
  405280:	54002941 	b.ne	4057a8 <__gettextparse+0x8e8>  // b.any
  405284:	2a1303e0 	mov	w0, w19
  405288:	a9407bfd 	ldp	x29, x30, [sp]
  40528c:	a94153f3 	ldp	x19, x20, [sp, #16]
  405290:	a9425bf5 	ldp	x21, x22, [sp, #32]
  405294:	a94363f7 	ldp	x23, x24, [sp, #48]
  405298:	a9446bf9 	ldp	x25, x26, [sp, #64]
  40529c:	a94573fb 	ldp	x27, x28, [sp, #80]
  4052a0:	911f03ff 	add	sp, sp, #0x7c0
  4052a4:	d65f03c0 	ret
  4052a8:	7100187f 	cmp	w3, #0x6
  4052ac:	54000060 	b.eq	4052b8 <__gettextparse+0x3f8>  // b.none
  4052b0:	71001c7f 	cmp	w3, #0x7
  4052b4:	54ffed61 	b.ne	405060 <__gettextparse+0x1a0>  // b.any
  4052b8:	f9400043 	ldr	x3, [x2]
  4052bc:	f85f0049 	ldur	x9, [x2, #-16]
  4052c0:	f100007f 	cmp	x3, #0x0
  4052c4:	b85f805a 	ldur	w26, [x2, #-8]
  4052c8:	fa401924 	ccmp	x9, #0x0, #0x4, ne  // ne = any
  4052cc:	54000800 	b.eq	4053cc <__gettextparse+0x50c>  // b.none
  4052d0:	d2800400 	mov	x0, #0x20                  	// #32
  4052d4:	f9003fe9 	str	x9, [sp, #120]
  4052d8:	f9004be3 	str	x3, [sp, #144]
  4052dc:	a90a0be1 	stp	x1, x2, [sp, #160]
  4052e0:	94003d3c 	bl	4147d0 <__libc_malloc>
  4052e4:	f9403fe9 	ldr	x9, [sp, #120]
  4052e8:	f9404be3 	ldr	x3, [sp, #144]
  4052ec:	a94a0be1 	ldp	x1, x2, [sp, #160]
  4052f0:	b40006e0 	cbz	x0, 4053cc <__gettextparse+0x50c>
  4052f4:	5280004b 	mov	w11, #0x2                   	// #2
  4052f8:	2900680b 	stp	w11, w26, [x0]
  4052fc:	a9008c09 	stp	x9, x3, [x0, #8]
  405300:	17ffff58 	b	405060 <__gettextparse+0x1a0>
  405304:	71002c7f 	cmp	w3, #0xb
  405308:	54001fc0 	b.eq	405700 <__gettextparse+0x840>  // b.none
  40530c:	540000ed 	b.le	405328 <__gettextparse+0x468>
  405310:	7100307f 	cmp	w3, #0xc
  405314:	54001de0 	b.eq	4056d0 <__gettextparse+0x810>  // b.none
  405318:	7100347f 	cmp	w3, #0xd
  40531c:	54ffea21 	b.ne	405060 <__gettextparse+0x1a0>  // b.any
  405320:	f85f8040 	ldur	x0, [x2, #-8]
  405324:	17ffff4f 	b	405060 <__gettextparse+0x1a0>
  405328:	7100247f 	cmp	w3, #0x9
  40532c:	54fffc60 	b.eq	4052b8 <__gettextparse+0x3f8>  // b.none
  405330:	7100287f 	cmp	w3, #0xa
  405334:	54ffe961 	b.ne	405060 <__gettextparse+0x1a0>  // b.any
  405338:	f940005a 	ldr	x26, [x2]
  40533c:	b400129a 	cbz	x26, 40558c <__gettextparse+0x6cc>
  405340:	d2800400 	mov	x0, #0x20                  	// #32
  405344:	f9003fe1 	str	x1, [sp, #120]
  405348:	f9004be2 	str	x2, [sp, #144]
  40534c:	94003d21 	bl	4147d0 <__libc_malloc>
  405350:	f9403fe1 	ldr	x1, [sp, #120]
  405354:	f9404be2 	ldr	x2, [sp, #144]
  405358:	b40011a0 	cbz	x0, 40558c <__gettextparse+0x6cc>
  40535c:	d2800023 	mov	x3, #0x1                   	// #1
  405360:	f2c00043 	movk	x3, #0x2, lsl #32
  405364:	a9006803 	stp	x3, x26, [x0]
  405368:	17ffff3e 	b	405060 <__gettextparse+0x1a0>
  40536c:	5280000c 	mov	w12, #0x0                   	// #0
  405370:	52800019 	mov	w25, #0x0                   	// #0
  405374:	17fffeff 	b	404f70 <__gettextparse+0xb0>
  405378:	12800039 	mov	w25, #0xfffffffe            	// #-2
  40537c:	17ffff93 	b	4051c8 <__gettextparse+0x308>
  405380:	f94047e3 	ldr	x3, [sp, #136]
  405384:	f9400065 	ldr	x5, [x3]
  405388:	14000006 	b	4053a0 <__gettextparse+0x4e0>
  40538c:	7100807f 	cmp	w3, #0x20
  405390:	aa0503eb 	mov	x11, x5
  405394:	7a491864 	ccmp	w3, #0x9, #0x4, ne  // ne = any
  405398:	910004a5 	add	x5, x5, #0x1
  40539c:	54000481 	b.ne	40542c <__gettextparse+0x56c>  // b.any
  4053a0:	394000a3 	ldrb	w3, [x5]
  4053a4:	35ffff43 	cbnz	w3, 40538c <__gettextparse+0x4cc>
  4053a8:	f94047e3 	ldr	x3, [sp, #136]
  4053ac:	5280000c 	mov	w12, #0x0                   	// #0
  4053b0:	52800019 	mov	w25, #0x0                   	// #0
  4053b4:	f9000065 	str	x5, [x3]
  4053b8:	17fffeee 	b	404f70 <__gettextparse+0xb0>
  4053bc:	91052129 	add	x9, x9, #0x148
  4053c0:	38e1c920 	ldrsb	w0, [x9, w1, sxtw]
  4053c4:	2a0003f3 	mov	w19, w0
  4053c8:	17ffff3d 	b	4050bc <__gettextparse+0x1fc>
  4053cc:	aa0303e0 	mov	x0, x3
  4053d0:	f9003fe9 	str	x9, [sp, #120]
  4053d4:	f9004be1 	str	x1, [sp, #144]
  4053d8:	f90053e2 	str	x2, [sp, #160]
  4053dc:	97fffe9d 	bl	404e50 <__gettext_free_exp>
  4053e0:	f9403fe9 	ldr	x9, [sp, #120]
  4053e4:	aa0903e0 	mov	x0, x9
  4053e8:	97fffe9a 	bl	404e50 <__gettext_free_exp>
  4053ec:	d2800000 	mov	x0, #0x0                   	// #0
  4053f0:	f9404be1 	ldr	x1, [sp, #144]
  4053f4:	f94053e2 	ldr	x2, [sp, #160]
  4053f8:	17ffff1a 	b	405060 <__gettextparse+0x1a0>
  4053fc:	aa1a03e0 	mov	x0, x26
  405400:	f9003fe3 	str	x3, [sp, #120]
  405404:	f9004be1 	str	x1, [sp, #144]
  405408:	f90053e2 	str	x2, [sp, #160]
  40540c:	97fffe91 	bl	404e50 <__gettext_free_exp>
  405410:	f9403fe3 	ldr	x3, [sp, #120]
  405414:	aa0303e0 	mov	x0, x3
  405418:	97fffe8e 	bl	404e50 <__gettext_free_exp>
  40541c:	d2800000 	mov	x0, #0x0                   	// #0
  405420:	f9404be1 	ldr	x1, [sp, #144]
  405424:	f94053e2 	ldr	x2, [sp, #160]
  405428:	17ffff0e 	b	405060 <__gettextparse+0x1a0>
  40542c:	5100286c 	sub	w12, w3, #0xa
  405430:	2a0303f9 	mov	w25, w3
  405434:	7101c99f 	cmp	w12, #0x72
  405438:	54000109 	b.ls	405458 <__gettextparse+0x598>  // b.plast
  40543c:	f94047e3 	ldr	x3, [sp, #136]
  405440:	5280004c 	mov	w12, #0x2                   	// #2
  405444:	52802039 	mov	w25, #0x101                 	// #257
  405448:	f9000065 	str	x5, [x3]
  40544c:	17fffec8 	b	404f6c <__gettextparse+0xac>
  405450:	52802039 	mov	w25, #0x101                 	// #257
  405454:	17ffff5d 	b	4051c8 <__gettextparse+0x308>
  405458:	f000028d 	adrp	x13, 458000 <free_modules_db+0x40>
  40545c:	912c21ad 	add	x13, x13, #0xb08
  405460:	786c59ad 	ldrh	w13, [x13, w12, uxtw #1]
  405464:	1000006c 	adr	x12, 405470 <__gettextparse+0x5b0>
  405468:	8b2da98d 	add	x13, x12, w13, sxth #2
  40546c:	d61f01a0 	br	x13
  405470:	f85f0043 	ldur	x3, [x2, #-16]
  405474:	f940005a 	ldr	x26, [x2]
  405478:	f100007f 	cmp	x3, #0x0
  40547c:	fa401b44 	ccmp	x26, #0x0, #0x4, ne  // ne = any
  405480:	54fffbe0 	b.eq	4053fc <__gettextparse+0x53c>  // b.none
  405484:	d2800400 	mov	x0, #0x20                  	// #32
  405488:	f9003fe3 	str	x3, [sp, #120]
  40548c:	f9004be1 	str	x1, [sp, #144]
  405490:	f90053e2 	str	x2, [sp, #160]
  405494:	94003ccf 	bl	4147d0 <__libc_malloc>
  405498:	f9403fe3 	ldr	x3, [sp, #120]
  40549c:	f9404be1 	ldr	x1, [sp, #144]
  4054a0:	f94053e2 	ldr	x2, [sp, #160]
  4054a4:	b4fffac0 	cbz	x0, 4053fc <__gettextparse+0x53c>
  4054a8:	a900e803 	stp	x3, x26, [x0, #8]
  4054ac:	d2800043 	mov	x3, #0x2                   	// #2
  4054b0:	f2c001c3 	movk	x3, #0xe, lsl #32
  4054b4:	f9000003 	str	x3, [x0]
  4054b8:	17fffeea 	b	405060 <__gettextparse+0x1a0>
  4054bc:	f85f0043 	ldur	x3, [x2, #-16]
  4054c0:	f940005a 	ldr	x26, [x2]
  4054c4:	f100007f 	cmp	x3, #0x0
  4054c8:	f85e0049 	ldur	x9, [x2, #-32]
  4054cc:	fa401b44 	ccmp	x26, #0x0, #0x4, ne  // ne = any
  4054d0:	fa401924 	ccmp	x9, #0x0, #0x4, ne  // ne = any
  4054d4:	54001280 	b.eq	405724 <__gettextparse+0x864>  // b.none
  4054d8:	d2800400 	mov	x0, #0x20                  	// #32
  4054dc:	f9003fe9 	str	x9, [sp, #120]
  4054e0:	f9004be3 	str	x3, [sp, #144]
  4054e4:	a90a0be1 	stp	x1, x2, [sp, #160]
  4054e8:	94003cba 	bl	4147d0 <__libc_malloc>
  4054ec:	f9403fe9 	ldr	x9, [sp, #120]
  4054f0:	f9404be3 	ldr	x3, [sp, #144]
  4054f4:	a94a0be1 	ldp	x1, x2, [sp, #160]
  4054f8:	b4001160 	cbz	x0, 405724 <__gettextparse+0x864>
  4054fc:	a9008c09 	stp	x9, x3, [x0, #8]
  405500:	d2800069 	mov	x9, #0x3                   	// #3
  405504:	f2c00209 	movk	x9, #0x10, lsl #32
  405508:	f9000009 	str	x9, [x0]
  40550c:	f9000c1a 	str	x26, [x0, #24]
  405510:	17fffed4 	b	405060 <__gettextparse+0x1a0>
  405514:	39400569 	ldrb	w9, [x11, #1]
  405518:	5100c063 	sub	w3, w3, #0x30
  40551c:	5100c128 	sub	w8, w9, #0x30
  405520:	93407c63 	sxtw	x3, w3
  405524:	12001d09 	and	w9, w8, #0xff
  405528:	7100253f 	cmp	w9, #0x9
  40552c:	54000128 	b.hi	405550 <__gettextparse+0x690>  // b.pmore
  405530:	38401ca9 	ldrb	w9, [x5, #1]!
  405534:	93407d0b 	sxtw	x11, w8
  405538:	8b030863 	add	x3, x3, x3, lsl #2
  40553c:	5100c128 	sub	w8, w9, #0x30
  405540:	12001d09 	and	w9, w8, #0xff
  405544:	8b030563 	add	x3, x11, x3, lsl #1
  405548:	7100253f 	cmp	w9, #0x9
  40554c:	54ffff29 	b.ls	405530 <__gettextparse+0x670>  // b.plast
  405550:	f9004fe3 	str	x3, [sp, #152]
  405554:	5280016c 	mov	w12, #0xb                   	// #11
  405558:	f94047e3 	ldr	x3, [sp, #136]
  40555c:	528020d9 	mov	w25, #0x106                 	// #262
  405560:	f9000065 	str	x5, [x3]
  405564:	17fffe82 	b	404f6c <__gettextparse+0xac>
  405568:	39400569 	ldrb	w9, [x11, #1]
  40556c:	6b03013f 	cmp	w9, w3
  405570:	54fff661 	b.ne	40543c <__gettextparse+0x57c>  // b.any
  405574:	91000965 	add	x5, x11, #0x2
  405578:	f94037e4 	ldr	x4, [sp, #104]
  40557c:	38e3c88c 	ldrsb	w12, [x4, w3, sxtw]
  405580:	f94047e3 	ldr	x3, [sp, #136]
  405584:	f9000065 	str	x5, [x3]
  405588:	17fffe79 	b	404f6c <__gettextparse+0xac>
  40558c:	aa1a03e0 	mov	x0, x26
  405590:	f9003fe1 	str	x1, [sp, #120]
  405594:	f9004be2 	str	x2, [sp, #144]
  405598:	97fffe2e 	bl	404e50 <__gettext_free_exp>
  40559c:	d2800000 	mov	x0, #0x0                   	// #0
  4055a0:	f9403fe1 	ldr	x1, [sp, #120]
  4055a4:	f9404be2 	ldr	x2, [sp, #144]
  4055a8:	17fffeae 	b	405060 <__gettextparse+0x1a0>
  4055ac:	f94047e3 	ldr	x3, [sp, #136]
  4055b0:	5280000c 	mov	w12, #0x0                   	// #0
  4055b4:	52800019 	mov	w25, #0x0                   	// #0
  4055b8:	f900006b 	str	x11, [x3]
  4055bc:	17fffe6d 	b	404f70 <__gettextparse+0xb0>
  4055c0:	d28000a3 	mov	x3, #0x5                   	// #5
  4055c4:	f9404fe4 	ldr	x4, [sp, #152]
  4055c8:	5280014c 	mov	w12, #0xa                   	// #10
  4055cc:	528020b9 	mov	w25, #0x105                 	// #261
  4055d0:	b3407c64 	bfxil	x4, x3, #0, #32
  4055d4:	f9004fe4 	str	x4, [sp, #152]
  4055d8:	f94047e3 	ldr	x3, [sp, #136]
  4055dc:	f9000065 	str	x5, [x3]
  4055e0:	17fffe63 	b	404f6c <__gettextparse+0xac>
  4055e4:	d2800083 	mov	x3, #0x4                   	// #4
  4055e8:	17fffff7 	b	4055c4 <__gettextparse+0x704>
  4055ec:	d2800063 	mov	x3, #0x3                   	// #3
  4055f0:	17fffff5 	b	4055c4 <__gettextparse+0x704>
  4055f4:	39400563 	ldrb	w3, [x11, #1]
  4055f8:	7100f47f 	cmp	w3, #0x3d
  4055fc:	54000d20 	b.eq	4057a0 <__gettextparse+0x8e0>  // b.none
  405600:	f94047e3 	ldr	x3, [sp, #136]
  405604:	528000cc 	mov	w12, #0x6                   	// #6
  405608:	52800439 	mov	w25, #0x21                  	// #33
  40560c:	f9000065 	str	x5, [x3]
  405610:	17fffe57 	b	404f6c <__gettextparse+0xac>
  405614:	d28000e3 	mov	x3, #0x7                   	// #7
  405618:	f9404fe4 	ldr	x4, [sp, #152]
  40561c:	5280012c 	mov	w12, #0x9                   	// #9
  405620:	52802099 	mov	w25, #0x104                 	// #260
  405624:	b3407c64 	bfxil	x4, x3, #0, #32
  405628:	f9004fe4 	str	x4, [sp, #152]
  40562c:	f94047e3 	ldr	x3, [sp, #136]
  405630:	f9000065 	str	x5, [x3]
  405634:	17fffe4e 	b	404f6c <__gettextparse+0xac>
  405638:	d28000c3 	mov	x3, #0x6                   	// #6
  40563c:	17fffff7 	b	405618 <__gettextparse+0x758>
  405640:	39400563 	ldrb	w3, [x11, #1]
  405644:	7100f47f 	cmp	w3, #0x3d
  405648:	54000a80 	b.eq	405798 <__gettextparse+0x8d8>  // b.none
  40564c:	f9404fe4 	ldr	x4, [sp, #152]
  405650:	d2800123 	mov	x3, #0x9                   	// #9
  405654:	5280010c 	mov	w12, #0x8                   	// #8
  405658:	52802079 	mov	w25, #0x103                 	// #259
  40565c:	b3407c64 	bfxil	x4, x3, #0, #32
  405660:	f9004fe4 	str	x4, [sp, #152]
  405664:	f94047e3 	ldr	x3, [sp, #136]
  405668:	f9000065 	str	x5, [x3]
  40566c:	17fffe40 	b	404f6c <__gettextparse+0xac>
  405670:	39400563 	ldrb	w3, [x11, #1]
  405674:	7100f47f 	cmp	w3, #0x3d
  405678:	54ffee21 	b.ne	40543c <__gettextparse+0x57c>  // b.any
  40567c:	d2800183 	mov	x3, #0xc                   	// #12
  405680:	f9404fe4 	ldr	x4, [sp, #152]
  405684:	9100096b 	add	x11, x11, #0x2
  405688:	528000ec 	mov	w12, #0x7                   	// #7
  40568c:	52802059 	mov	w25, #0x102                 	// #258
  405690:	b3407c64 	bfxil	x4, x3, #0, #32
  405694:	f9004fe4 	str	x4, [sp, #152]
  405698:	f94047e3 	ldr	x3, [sp, #136]
  40569c:	f900006b 	str	x11, [x3]
  4056a0:	17fffe33 	b	404f6c <__gettextparse+0xac>
  4056a4:	39400563 	ldrb	w3, [x11, #1]
  4056a8:	7100f47f 	cmp	w3, #0x3d
  4056ac:	54000620 	b.eq	405770 <__gettextparse+0x8b0>  // b.none
  4056b0:	f9404fe3 	ldr	x3, [sp, #152]
  4056b4:	d280010c 	mov	x12, #0x8                   	// #8
  4056b8:	52802079 	mov	w25, #0x103                 	// #259
  4056bc:	b3407d83 	bfxil	x3, x12, #0, #32
  4056c0:	f9004fe3 	str	x3, [sp, #152]
  4056c4:	f94047e3 	ldr	x3, [sp, #136]
  4056c8:	f9000065 	str	x5, [x3]
  4056cc:	17fffe28 	b	404f6c <__gettextparse+0xac>
  4056d0:	d2800400 	mov	x0, #0x20                  	// #32
  4056d4:	f9003fe1 	str	x1, [sp, #120]
  4056d8:	f9004be2 	str	x2, [sp, #144]
  4056dc:	94003c3d 	bl	4147d0 <__libc_malloc>
  4056e0:	f9403fe1 	ldr	x1, [sp, #120]
  4056e4:	f9404be2 	ldr	x2, [sp, #144]
  4056e8:	b4ffcbc0 	cbz	x0, 405060 <__gettextparse+0x1a0>
  4056ec:	f9400043 	ldr	x3, [x2]
  4056f0:	f9000403 	str	x3, [x0, #8]
  4056f4:	d2c00023 	mov	x3, #0x100000000           	// #4294967296
  4056f8:	f9000003 	str	x3, [x0]
  4056fc:	17fffe59 	b	405060 <__gettextparse+0x1a0>
  405700:	d2800400 	mov	x0, #0x20                  	// #32
  405704:	f9003fe1 	str	x1, [sp, #120]
  405708:	f9004be2 	str	x2, [sp, #144]
  40570c:	94003c31 	bl	4147d0 <__libc_malloc>
  405710:	f9403fe1 	ldr	x1, [sp, #120]
  405714:	f9404be2 	ldr	x2, [sp, #144]
  405718:	b4ffca40 	cbz	x0, 405060 <__gettextparse+0x1a0>
  40571c:	f900001f 	str	xzr, [x0]
  405720:	17fffe50 	b	405060 <__gettextparse+0x1a0>
  405724:	aa1a03e0 	mov	x0, x26
  405728:	f9003fe9 	str	x9, [sp, #120]
  40572c:	f9004be3 	str	x3, [sp, #144]
  405730:	a90a0be1 	stp	x1, x2, [sp, #160]
  405734:	97fffdc7 	bl	404e50 <__gettext_free_exp>
  405738:	f9404be3 	ldr	x3, [sp, #144]
  40573c:	aa0303e0 	mov	x0, x3
  405740:	97fffdc4 	bl	404e50 <__gettext_free_exp>
  405744:	f9403fe9 	ldr	x9, [sp, #120]
  405748:	aa0903e0 	mov	x0, x9
  40574c:	97fffdc1 	bl	404e50 <__gettext_free_exp>
  405750:	d2800000 	mov	x0, #0x0                   	// #0
  405754:	a94a0be1 	ldp	x1, x2, [sp, #160]
  405758:	17fffe42 	b	405060 <__gettextparse+0x1a0>
  40575c:	aa1803fc 	mov	x28, x24
  405760:	52800033 	mov	w19, #0x1                   	// #1
  405764:	17fffebf 	b	405260 <__gettextparse+0x3a0>
  405768:	52800053 	mov	w19, #0x2                   	// #2
  40576c:	17fffebb 	b	405258 <__gettextparse+0x398>
  405770:	d2800143 	mov	x3, #0xa                   	// #10
  405774:	f9404fe4 	ldr	x4, [sp, #152]
  405778:	9100096b 	add	x11, x11, #0x2
  40577c:	5280010c 	mov	w12, #0x8                   	// #8
  405780:	52802079 	mov	w25, #0x103                 	// #259
  405784:	b3407c64 	bfxil	x4, x3, #0, #32
  405788:	f9004fe4 	str	x4, [sp, #152]
  40578c:	f94047e3 	ldr	x3, [sp, #136]
  405790:	f900006b 	str	x11, [x3]
  405794:	17fffdf6 	b	404f6c <__gettextparse+0xac>
  405798:	d2800163 	mov	x3, #0xb                   	// #11
  40579c:	17fffff6 	b	405774 <__gettextparse+0x8b4>
  4057a0:	d28001a3 	mov	x3, #0xd                   	// #13
  4057a4:	17ffffb7 	b	405680 <__gettextparse+0x7c0>
  4057a8:	94005ee2 	bl	41d330 <__stack_chk_fail>
  4057ac:	d503201f 	nop

00000000004057b0 <__gettext_extract_plural>:
  4057b0:	a9ba7bfd 	stp	x29, x30, [sp, #-96]!
  4057b4:	910003fd 	mov	x29, sp
  4057b8:	f9001bf7 	str	x23, [sp, #48]
  4057bc:	90000477 	adrp	x23, 491000 <tunable_list+0x528>
  4057c0:	a90153f3 	stp	x19, x20, [sp, #16]
  4057c4:	aa0203f4 	mov	x20, x2
  4057c8:	f945fae3 	ldr	x3, [x23, #3056]
  4057cc:	a9025bf5 	stp	x21, x22, [sp, #32]
  4057d0:	aa0103f5 	mov	x21, x1
  4057d4:	f9400061 	ldr	x1, [x3]
  4057d8:	f9002fe1 	str	x1, [sp, #88]
  4057dc:	d2800001 	mov	x1, #0x0                   	// #0
  4057e0:	b40005c0 	cbz	x0, 405898 <__gettext_extract_plural+0xe8>
  4057e4:	aa0003f3 	mov	x19, x0
  4057e8:	f0000281 	adrp	x1, 458000 <free_modules_db+0x40>
  4057ec:	9137a021 	add	x1, x1, #0xde8
  4057f0:	9400458c 	bl	416e20 <strstr>
  4057f4:	f0000281 	adrp	x1, 458000 <free_modules_db+0x40>
  4057f8:	aa0003f6 	mov	x22, x0
  4057fc:	9137c021 	add	x1, x1, #0xdf0
  405800:	aa1303e0 	mov	x0, x19
  405804:	94004587 	bl	416e20 <strstr>
  405808:	f10002df 	cmp	x22, #0x0
  40580c:	fa401804 	ccmp	x0, #0x0, #0x4, ne  // ne = any
  405810:	54000440 	b.eq	405898 <__gettext_extract_plural+0xe8>  // b.none
  405814:	39402403 	ldrb	w3, [x0, #9]
  405818:	91002413 	add	x19, x0, #0x9
  40581c:	340003e3 	cbz	w3, 405898 <__gettext_extract_plural+0xe8>
  405820:	90000460 	adrp	x0, 491000 <tunable_list+0x528>
  405824:	f9476000 	ldr	x0, [x0, #3776]
  405828:	d53bd041 	mrs	x1, tpidr_el0
  40582c:	f8606821 	ldr	x1, [x1, x0]
  405830:	14000003 	b	40583c <__gettext_extract_plural+0x8c>
  405834:	38401e63 	ldrb	w3, [x19, #1]!
  405838:	34000303 	cbz	w3, 405898 <__gettext_extract_plural+0xe8>
  40583c:	d37f1c60 	ubfiz	x0, x3, #1, #8
  405840:	78606824 	ldrh	w4, [x1, x0]
  405844:	376fff84 	tbnz	w4, #13, 405834 <__gettext_extract_plural+0x84>
  405848:	5100c063 	sub	w3, w3, #0x30
  40584c:	12001c63 	and	w3, w3, #0xff
  405850:	7100247f 	cmp	w3, #0x9
  405854:	54000228 	b.hi	405898 <__gettext_extract_plural+0xe8>  // b.pmore
  405858:	910103e1 	add	x1, sp, #0x40
  40585c:	aa1303e0 	mov	x0, x19
  405860:	52800142 	mov	w2, #0xa                   	// #10
  405864:	9400056c 	bl	406e14 <__strtoul>
  405868:	f94023e1 	ldr	x1, [sp, #64]
  40586c:	eb13003f 	cmp	x1, x19
  405870:	54000140 	b.eq	405898 <__gettext_extract_plural+0xe8>  // b.none
  405874:	f9000280 	str	x0, [x20]
  405878:	91001ed6 	add	x22, x22, #0x7
  40587c:	910123e0 	add	x0, sp, #0x48
  405880:	f90027f6 	str	x22, [sp, #72]
  405884:	97fffd8f 	bl	404ec0 <__gettextparse>
  405888:	35000080 	cbnz	w0, 405898 <__gettext_extract_plural+0xe8>
  40588c:	f9402be0 	ldr	x0, [sp, #80]
  405890:	f90002a0 	str	x0, [x21]
  405894:	14000006 	b	4058ac <__gettext_extract_plural+0xfc>
  405898:	b0000440 	adrp	x0, 48e000 <__FRAME_END__+0xfb30>
  40589c:	91242000 	add	x0, x0, #0x908
  4058a0:	f90002a0 	str	x0, [x21]
  4058a4:	d2800040 	mov	x0, #0x2                   	// #2
  4058a8:	f9000280 	str	x0, [x20]
  4058ac:	f945faf7 	ldr	x23, [x23, #3056]
  4058b0:	f9402fe0 	ldr	x0, [sp, #88]
  4058b4:	f94002e1 	ldr	x1, [x23]
  4058b8:	eb010000 	subs	x0, x0, x1
  4058bc:	d2800001 	mov	x1, #0x0                   	// #0
  4058c0:	540000c1 	b.ne	4058d8 <__gettext_extract_plural+0x128>  // b.any
  4058c4:	a94153f3 	ldp	x19, x20, [sp, #16]
  4058c8:	a9425bf5 	ldp	x21, x22, [sp, #32]
  4058cc:	f9401bf7 	ldr	x23, [sp, #48]
  4058d0:	a8c67bfd 	ldp	x29, x30, [sp], #96
  4058d4:	d65f03c0 	ret
  4058d8:	94005e96 	bl	41d330 <__stack_chk_fail>
  4058dc:	d503201f 	nop

00000000004058e0 <__hash_string>:
  4058e0:	aa0003e2 	mov	x2, x0
  4058e4:	38401441 	ldrb	w1, [x2], #1
  4058e8:	92401c20 	and	x0, x1, #0xff
  4058ec:	350000e1 	cbnz	w1, 405908 <__hash_string+0x28>
  4058f0:	1400000b 	b	40591c <__hash_string+0x3c>
  4058f4:	8b001060 	add	x0, x3, x0, lsl #4
  4058f8:	f2640c01 	ands	x1, x0, #0xf0000000
  4058fc:	9260ec03 	and	x3, x0, #0xffffffff0fffffff
  405900:	ca416061 	eor	x1, x3, x1, lsr #24
  405904:	9a810000 	csel	x0, x0, x1, eq  // eq = none
  405908:	39400041 	ldrb	w1, [x2]
  40590c:	91000442 	add	x2, x2, #0x1
  405910:	92401c23 	and	x3, x1, #0xff
  405914:	35ffff01 	cbnz	w1, 4058f4 <__hash_string+0x14>
  405918:	d65f03c0 	ret
  40591c:	d2800000 	mov	x0, #0x0                   	// #0
  405920:	d65f03c0 	ret
  405924:	d503201f 	nop
  405928:	d503201f 	nop
  40592c:	d503201f 	nop
  405930:	d503201f 	nop
  405934:	d503201f 	nop
  405938:	d503201f 	nop
  40593c:	d503201f 	nop

0000000000405940 <setjmp>:
  405940:	d503201f 	nop
  405944:	d2800021 	mov	x1, #0x1                   	// #1
  405948:	1400001f 	b	4059c4 <__sigsetjmp+0x4>
  40594c:	d503201f 	nop
  405950:	d503201f 	nop
  405954:	d503201f 	nop
  405958:	d503201f 	nop
  40595c:	d503201f 	nop
  405960:	d503201f 	nop
  405964:	d503201f 	nop
  405968:	d503201f 	nop
  40596c:	d503201f 	nop
  405970:	d503201f 	nop
  405974:	d503201f 	nop
  405978:	d503201f 	nop
  40597c:	d503201f 	nop

0000000000405980 <_setjmp>:
  405980:	d503201f 	nop
  405984:	d2800001 	mov	x1, #0x0                   	// #0
  405988:	1400000f 	b	4059c4 <__sigsetjmp+0x4>
  40598c:	d503201f 	nop
  405990:	d503201f 	nop
  405994:	d503201f 	nop
  405998:	d503201f 	nop
  40599c:	d503201f 	nop
  4059a0:	d503201f 	nop
  4059a4:	d503201f 	nop
  4059a8:	d503201f 	nop
  4059ac:	d503201f 	nop
  4059b0:	d503201f 	nop
  4059b4:	d503201f 	nop
  4059b8:	d503201f 	nop
  4059bc:	d503201f 	nop

00000000004059c0 <__sigsetjmp>:
  4059c0:	d503201f 	nop
  4059c4:	a9005013 	stp	x19, x20, [x0]
  4059c8:	a9015815 	stp	x21, x22, [x0, #16]
  4059cc:	a9026017 	stp	x23, x24, [x0, #32]
  4059d0:	a9036819 	stp	x25, x26, [x0, #48]
  4059d4:	a904701b 	stp	x27, x28, [x0, #64]
  4059d8:	f0000442 	adrp	x2, 490000 <_nl_C_LC_MONETARY+0x138>
  4059dc:	f944f843 	ldr	x3, [x2, #2544]
  4059e0:	ca0303c4 	eor	x4, x30, x3
  4059e4:	a905101d 	stp	x29, x4, [x0, #80]
  4059e8:	6d072408 	stp	d8, d9, [x0, #112]
  4059ec:	6d082c0a 	stp	d10, d11, [x0, #128]
  4059f0:	6d09340c 	stp	d12, d13, [x0, #144]
  4059f4:	6d0a3c0e 	stp	d14, d15, [x0, #160]
  4059f8:	910003e4 	mov	x4, sp
  4059fc:	f0000442 	adrp	x2, 490000 <_nl_C_LC_MONETARY+0x138>
  405a00:	f944f843 	ldr	x3, [x2, #2544]
  405a04:	ca030085 	eor	x5, x4, x3
  405a08:	f9003405 	str	x5, [x0, #104]
  405a0c:	14000001 	b	405a10 <__sigjmp_save>

0000000000405a10 <__sigjmp_save>:
  405a10:	a9be7bfd 	stp	x29, x30, [sp, #-32]!
  405a14:	910003fd 	mov	x29, sp
  405a18:	f9000bf3 	str	x19, [sp, #16]
  405a1c:	aa0003f3 	mov	x19, x0
  405a20:	350000c1 	cbnz	w1, 405a38 <__sigjmp_save+0x28>
  405a24:	b900b261 	str	w1, [x19, #176]
  405a28:	52800000 	mov	w0, #0x0                   	// #0
  405a2c:	f9400bf3 	ldr	x19, [sp, #16]
  405a30:	a8c27bfd 	ldp	x29, x30, [sp], #32
  405a34:	d65f03c0 	ret
  405a38:	9102e002 	add	x2, x0, #0xb8
  405a3c:	d2800001 	mov	x1, #0x0                   	// #0
  405a40:	52800000 	mov	w0, #0x0                   	// #0
  405a44:	9400001f 	bl	405ac0 <__sigprocmask>
  405a48:	7100001f 	cmp	w0, #0x0
  405a4c:	52800000 	mov	w0, #0x0                   	// #0
  405a50:	1a9f17e1 	cset	w1, eq  // eq = none
  405a54:	b900b261 	str	w1, [x19, #176]
  405a58:	f9400bf3 	ldr	x19, [sp, #16]
  405a5c:	a8c27bfd 	ldp	x29, x30, [sp], #32
  405a60:	d65f03c0 	ret
  405a64:	d503201f 	nop
  405a68:	d503201f 	nop
  405a6c:	d503201f 	nop

0000000000405a70 <raise>:
  405a70:	a9be7bfd 	stp	x29, x30, [sp, #-32]!
  405a74:	910003fd 	mov	x29, sp
  405a78:	f9000bf3 	str	x19, [sp, #16]
  405a7c:	2a0003f3 	mov	w19, w0
  405a80:	94002a84 	bl	410490 <__pthread_self>
  405a84:	2a1303e1 	mov	w1, w19
  405a88:	9400280b 	bl	40fab4 <__pthread_kill>
  405a8c:	35000080 	cbnz	w0, 405a9c <raise+0x2c>
  405a90:	f9400bf3 	ldr	x19, [sp, #16]
  405a94:	a8c27bfd 	ldp	x29, x30, [sp], #32
  405a98:	d65f03c0 	ret
  405a9c:	90000461 	adrp	x1, 491000 <tunable_list+0x528>
  405aa0:	f946f021 	ldr	x1, [x1, #3552]
  405aa4:	d53bd042 	mrs	x2, tpidr_el0
  405aa8:	b8216840 	str	w0, [x2, x1]
  405aac:	12800000 	mov	w0, #0xffffffff            	// #-1
  405ab0:	17fffff8 	b	405a90 <raise+0x20>
  405ab4:	d503201f 	nop
  405ab8:	d503201f 	nop
  405abc:	d503201f 	nop

0000000000405ac0 <__sigprocmask>:
  405ac0:	a9bf7bfd 	stp	x29, x30, [sp, #-16]!
  405ac4:	910003fd 	mov	x29, sp
  405ac8:	94002a86 	bl	4104e0 <__pthread_sigmask>
  405acc:	35000060 	cbnz	w0, 405ad8 <__sigprocmask+0x18>
  405ad0:	a8c17bfd 	ldp	x29, x30, [sp], #16
  405ad4:	d65f03c0 	ret
  405ad8:	90000461 	adrp	x1, 491000 <tunable_list+0x528>
  405adc:	f946f021 	ldr	x1, [x1, #3552]
  405ae0:	d53bd042 	mrs	x2, tpidr_el0
  405ae4:	b8216840 	str	w0, [x2, x1]
  405ae8:	12800000 	mov	w0, #0xffffffff            	// #-1
  405aec:	17fffff9 	b	405ad0 <__sigprocmask+0x10>

0000000000405af0 <msort_with_tmp.part.0>:
  405af0:	a9b87bfd 	stp	x29, x30, [sp, #-128]!
  405af4:	910003fd 	mov	x29, sp
  405af8:	a90573fb 	stp	x27, x28, [sp, #80]
  405afc:	f940001b 	ldr	x27, [x0]
  405b00:	a90153f3 	stp	x19, x20, [sp, #16]
  405b04:	d341fc54 	lsr	x20, x2, #1
  405b08:	a9025bf5 	stp	x21, x22, [sp, #32]
  405b0c:	cb140053 	sub	x19, x2, x20
  405b10:	aa0003f6 	mov	x22, x0
  405b14:	a90363f7 	stp	x23, x24, [sp, #48]
  405b18:	9b1b069b 	madd	x27, x20, x27, x1
  405b1c:	a9046bf9 	stp	x25, x26, [sp, #64]
  405b20:	aa0203f9 	mov	x25, x2
  405b24:	f9003fe1 	str	x1, [sp, #120]
  405b28:	f100069f 	cmp	x20, #0x1
  405b2c:	54000060 	b.eq	405b38 <msort_with_tmp.part.0+0x48>  // b.none
  405b30:	aa1403e2 	mov	x2, x20
  405b34:	97ffffef 	bl	405af0 <msort_with_tmp.part.0>
  405b38:	f100067f 	cmp	x19, #0x1
  405b3c:	54000609 	b.ls	405bfc <msort_with_tmp.part.0+0x10c>  // b.plast
  405b40:	aa1603e0 	mov	x0, x22
  405b44:	aa1303e2 	mov	x2, x19
  405b48:	aa1b03e1 	mov	x1, x27
  405b4c:	97ffffe9 	bl	405af0 <msort_with_tmp.part.0>
  405b50:	a94002d5 	ldp	x21, x0, [x22]
  405b54:	a9415ed8 	ldp	x24, x23, [x22, #16]
  405b58:	f94012dc 	ldr	x28, [x22, #32]
  405b5c:	f100081f 	cmp	x0, #0x2
